Certificate:
    Data:
        Version: 3 (0x2)
        Serial Number: 1 (0x1)
    Signature Algorithm: sha1WithRSAEncryption
        Issuer: C=BA, ST=RS, O=Elektrotehnicki fakultet, OU=CA_ETFBL, CN=CA_ETFBL/emailAddress=info@etf.unibl.org
        Validity
            Not Before: Aug 22 00:45:45 2019 GMT
            Not After : Aug 21 00:45:45 2020 GMT
        Subject: C=BA, ST=RS, O=Elektrotehnicki fakultet, OU=CA_ETFBL, CN=CA_ETFBL/emailAddress=info@etf.unibl.org
        Subject Public Key Info:
            Public Key Algorithm: rsaEncryption
                Public-Key: (2048 bit)
                Modulus:
                    00:e0:85:ea:0d:25:60:c4:0f:0d:bc:83:d3:52:db:
                    8c:ac:8d:3a:ba:bf:ed:7b:56:8a:a9:46:c2:d4:c3:
                    ff:43:6c:f1:bc:9f:b6:bd:fe:62:74:6d:8b:00:2e:
                    7f:f4:63:d4:9e:de:e8:00:be:28:23:14:d4:a4:09:
                    ad:a2:e9:c1:13:9f:67:1f:2e:ca:8d:a3:3a:71:d9:
                    89:d5:43:64:43:3b:c2:4b:c6:cb:6c:b6:2d:6c:68:
                    d0:08:99:71:e9:c8:8e:3c:9a:14:f9:77:d6:66:0d:
                    89:79:51:ed:c0:51:8c:73:fb:95:af:86:d8:d4:56:
                    0c:1c:7e:67:37:db:84:bb:68:23:d5:9f:0d:9f:0a:
                    87:55:e4:22:79:4d:59:c9:05:73:6a:26:b0:5d:2a:
                    40:f0:aa:ad:b8:30:26:9d:7e:e1:6e:2b:b3:f7:13:
                    c2:64:fd:19:ab:9c:37:42:15:fb:6a:61:f8:c1:44:
                    20:d5:57:65:4a:0c:22:ed:98:4b:51:ca:b9:a4:3c:
                    41:c7:ed:38:75:a1:bd:08:42:bc:be:1b:84:e2:5c:
                    46:7d:d2:d2:f9:81:5c:00:b6:d4:6e:33:89:f8:fb:
                    3d:71:34:a9:29:96:fd:7b:82:5f:c9:b6:54:cc:0d:
                    f2:35:f1:fa:60:85:6c:18:37:a9:d9:50:d7:86:79:
                    d5:d5
                Exponent: 65537 (0x10001)
        X509v3 extensions:
            X509v3 Basic Constraints: 
                CA:FALSE
            X509v3 Extended Key Usage: 
                TLS Web Client Authentication
            Netscape Comment: 
                OpenSSL Generated Certificate
            X509v3 Subject Key Identifier: 
                F6:38:C7:14:AA:BF:F2:45:E1:89:AC:17:DF:38:20:72:90:AA:64:B2
            X509v3 Authority Key Identifier: 
                keyid:F6:38:C7:14:AA:BF:F2:45:E1:89:AC:17:DF:38:20:72:90:AA:64:B2

            X509v3 CRL Distribution Points: 

                Full Name:
                  URI:http://192.168.21.89/rootcrl.pem

    Signature Algorithm: sha1WithRSAEncryption
         55:45:0b:26:b5:9f:84:87:e8:bc:39:44:c5:42:5f:d0:60:00:
         64:05:ee:ea:95:16:b7:3e:4a:bd:5f:1b:00:5d:e6:dc:0a:1e:
         d4:b1:86:1d:87:2d:28:cf:eb:cb:6f:d3:3f:4a:be:3e:a1:f7:
         de:ea:a1:59:dd:19:05:56:a3:a9:dd:f7:41:e2:19:72:db:e5:
         6a:78:7b:95:31:76:52:1e:5b:cf:15:ac:60:11:79:2a:44:2a:
         d1:65:32:f5:50:c5:8f:9e:9b:b6:40:00:73:90:85:58:4c:2c:
         36:a5:9a:e4:75:e5:19:cb:fc:d8:28:a9:20:22:2f:79:8c:39:
         3e:3d:77:2d:12:c5:7a:b7:fa:2f:1d:ed:2b:21:bd:98:b8:d4:
         c4:47:a5:8f:33:64:cc:ac:3c:88:e6:7c:45:52:51:a4:8d:c2:
         b5:34:39:fc:5a:fa:a0:ac:ca:16:94:2f:6c:ff:73:3e:78:57:
         47:ed:fd:24:a8:fc:50:9b:6c:87:8a:74:02:3a:2f:e6:41:4c:
         5c:db:61:c5:f5:b9:08:d3:59:a7:76:45:8a:2f:d7:b9:dc:d1:
         68:91:d1:e8:d2:a5:97:5d:36:bb:31:2c:c3:ae:6a:07:6c:ad:
         a2:33:8c:22:f6:14:29:d1:fe:31:d2:57:91:e9:57:3e:93:a3:
         40:47:00:43
-----BEGIN CERTIFICATE-----
MIIETjCCAzagAwIBAgIBATANBgkqhkiG9w0BAQUFADCBhjELMAkGA1UEBhMCQkEx
CzAJBgNVBAgTAlJTMSEwHwYDVQQKExhFbGVrdHJvdGVobmlja2kgZmFrdWx0ZXQx
ETAPBgNVBAsUCENBX0VURkJMMREwDwYDVQQDFAhDQV9FVEZCTDEhMB8GCSqGSIb3
DQEJARYSaW5mb0BldGYudW5pYmwub3JnMB4XDTE5MDgyMjAwNDU0NVoXDTIwMDgy
MTAwNDU0NVowgYYxCzAJBgNVBAYTAkJBMQswCQYDVQQIEwJSUzEhMB8GA1UEChMY
RWxla3Ryb3RlaG5pY2tpIGZha3VsdGV0MREwDwYDVQQLFAhDQV9FVEZCTDERMA8G
A1UEAxQIQ0FfRVRGQkwxITAfBgkqhkiG9w0BCQEWEmluZm9AZXRmLnVuaWJsLm9y
ZzCCASIwDQYJKoZIhvcNAQEBBQADggEPADCCAQoCggEBAOCF6g0lYMQPDbyD01Lb
jKyNOrq/7XtWiqlGwtTD/0Ns8byftr3+YnRtiwAuf/Rj1J7e6AC+KCMU1KQJraLp
wROfZx8uyo2jOnHZidVDZEM7wkvGy2y2LWxo0AiZcenIjjyaFPl31mYNiXlR7cBR
jHP7la+G2NRWDBx+ZzfbhLtoI9WfDZ8Kh1XkInlNWckFc2omsF0qQPCqrbgwJp1+
4W4rs/cTwmT9GaucN0IV+2ph+MFEINVXZUoMIu2YS1HKuaQ8QcftOHWhvQhCvL4b
hOJcRn3S0vmBXAC21G4zifj7PXE0qSmW/XuCX8m2VMwN8jXx+mCFbBg3qdlQ14Z5
1dUCAwEAAaOBxDCBwTAJBgNVHRMEAjAAMBMGA1UdJQQMMAoGCCsGAQUFBwMCMCwG
CWCGSAGG+EIBDQQfFh1PcGVuU1NMIEdlbmVyYXRlZCBDZXJ0aWZpY2F0ZTAdBgNV
HQ4EFgQU9jjHFKq/8kXhiawX3zggcpCqZLIwHwYDVR0jBBgwFoAU9jjHFKq/8kXh
iawX3zggcpCqZLIwMQYDVR0fBCowKDAmoCSgIoYgaHR0cDovLzE5Mi4xNjguMjEu
ODkvcm9vdGNybC5wZW0wDQYJKoZIhvcNAQEFBQADggEBAFVFCya1n4SH6Lw5RMVC
X9BgAGQF7uqVFrc+Sr1fGwBd5twKHtSxhh2HLSjP68tv0z9Kvj6h997qoVndGQVW
o6nd90HiGXLb5Wp4e5UxdlIeW88VrGAReSpEKtFlMvVQxY+em7ZAAHOQhVhMLDal
muR15RnL/NgoqSAiL3mMOT49dy0SxXq3+i8d7SshvZi41MRHpY8zZMysPIjmfEVS
UaSNwrU0Ofxa+qCsyhaUL2z/cz54V0ft/SSo/FCbbIeKdAI6L+ZBTFzbYcX1uQjT
Wad2RYov17nc0WiR0ejSpZddNrsxLMOuagdsraIzjCL2FCnR/jHSV5HpVz6To0BH
AEM=
-----END CERTIFICATE-----
