Certificate:
    Data:
        Version: 3 (0x2)
        Serial Number: 20 (0x14)
    Signature Algorithm: sha1WithRSAEncryption
        Issuer: C=BA, ST=RS, O=Elektrotehnicki fakultet, OU=CA_ETFBL, CN=CA_ETFBL/emailAddress=info@etf.unibl.org
        Validity
            Not Before: Jan 25 17:19:58 2020 GMT
            Not After : Jan 24 17:19:58 2021 GMT
        Subject: C=BA, ST=RS, O=Elektrotehnicki fakultet, OU=CA_ETFBL, CN=Aleksandar Kelec/emailAddress=aleksandar.kelec@etf.unibl.org
        Subject Public Key Info:
            Public Key Algorithm: rsaEncryption
                Public-Key: (2048 bit)
                Modulus:
                    00:9e:05:d6:db:ff:68:98:7e:3a:b7:46:48:00:6f:
                    64:01:3a:01:8c:c2:81:98:c3:88:03:54:0f:61:b0:
                    62:b5:0b:fd:bb:84:3e:1f:5c:84:e6:2c:7c:b1:7b:
                    05:f6:b0:ba:f7:45:c8:f0:96:92:c3:0f:3b:f2:b3:
                    c5:d6:5d:0f:80:04:76:00:4a:da:ed:c4:80:ca:bb:
                    00:f2:f7:73:f5:9e:8e:98:11:4c:7e:ec:8a:5e:19:
                    23:b0:1e:8e:33:fa:da:52:3d:f8:a5:66:f8:46:5f:
                    d3:1c:d4:71:8a:d3:11:95:f1:9f:0c:ca:26:8f:00:
                    75:94:b2:a5:a0:b8:6e:c3:e0:53:9e:3a:29:7c:bc:
                    17:5c:e6:8a:7c:79:de:df:3f:49:a8:72:3b:c7:f8:
                    96:0b:95:94:a2:10:e4:4a:92:7f:b6:36:97:39:18:
                    b7:49:89:1c:62:9a:1d:01:e2:04:7d:9d:69:71:c1:
                    83:a4:35:ff:ca:84:3c:14:d9:a1:b3:1f:63:2c:47:
                    69:b2:15:c3:73:e3:ca:9a:68:2f:c0:bc:06:6c:d4:
                    81:13:4a:cb:7e:e1:ba:00:1d:8d:31:1b:9a:32:37:
                    ed:19:9d:4c:7f:bc:cc:5a:3f:c4:77:25:6e:ce:0c:
                    78:9f:60:e5:eb:63:de:60:e0:b6:9e:6f:3e:58:56:
                    8f:eb
                Exponent: 65537 (0x10001)
        X509v3 extensions:
            X509v3 Basic Constraints: 
                CA:FALSE
            X509v3 Extended Key Usage: 
                TLS Web Client Authentication
            Netscape Comment: 
                OpenSSL Generated Certificate
            X509v3 Subject Key Identifier: 
                6F:B1:EC:BE:52:74:77:EE:39:85:EA:0C:D9:B4:97:28:EB:66:72:DD
            X509v3 Authority Key Identifier: 
                keyid:F6:38:C7:14:AA:BF:F2:45:E1:89:AC:17:DF:38:20:72:90:AA:64:B2

            X509v3 CRL Distribution Points: 

                Full Name:
                  URI:http://192.168.21.89/rootcrl.pem

    Signature Algorithm: sha1WithRSAEncryption
         86:bc:c5:dc:33:3c:63:99:90:e4:db:00:ce:4e:63:5c:df:24:
         8b:36:82:a9:3e:44:a5:aa:7f:6c:a8:f4:78:57:93:da:84:52:
         2b:b9:b4:33:ce:c5:f1:5c:50:f7:a2:1e:45:5c:33:83:87:00:
         17:d5:fa:7f:3d:5f:05:91:f9:15:cf:32:a2:cd:77:4f:7e:2c:
         12:22:91:56:6e:4e:b7:21:7a:a0:d9:25:bd:00:bd:6a:b8:e1:
         6b:6b:94:16:05:c0:ab:eb:37:c0:ad:15:2d:b0:0a:d1:3c:f1:
         44:06:29:e2:30:b4:ef:79:7d:0d:c0:64:ad:6c:3c:54:ca:53:
         53:88:bf:98:15:48:6c:81:f9:71:e7:e2:bc:00:68:16:6a:bc:
         9b:3b:82:3b:d0:50:d8:83:ce:96:b1:8a:f5:f2:37:84:b8:fd:
         45:65:4a:30:ff:24:00:ee:ff:b4:59:3d:3d:b2:25:8a:ca:51:
         c8:6d:8a:92:26:88:b8:72:c1:7f:ae:c7:ae:f6:b3:b6:77:a0:
         c9:a3:00:9c:e0:ac:3f:dc:c4:ef:9b:c2:eb:b9:3a:8d:70:21:
         8c:f1:c5:82:49:91:59:a2:4a:70:3c:7c:12:45:df:7a:96:f1:
         f4:ce:3a:3a:a4:ea:ee:0d:d2:df:9f:b6:64:5c:9b:4a:13:e5:
         88:a0:a8:46
-----BEGIN CERTIFICATE-----
MIIEYjCCA0qgAwIBAgIBFDANBgkqhkiG9w0BAQUFADCBhjELMAkGA1UEBhMCQkEx
CzAJBgNVBAgTAlJTMSEwHwYDVQQKExhFbGVrdHJvdGVobmlja2kgZmFrdWx0ZXQx
ETAPBgNVBAsUCENBX0VURkJMMREwDwYDVQQDFAhDQV9FVEZCTDEhMB8GCSqGSIb3
DQEJARYSaW5mb0BldGYudW5pYmwub3JnMB4XDTIwMDEyNTE3MTk1OFoXDTIxMDEy
NDE3MTk1OFowgZoxCzAJBgNVBAYTAkJBMQswCQYDVQQIEwJSUzEhMB8GA1UEChMY
RWxla3Ryb3RlaG5pY2tpIGZha3VsdGV0MREwDwYDVQQLFAhDQV9FVEZCTDEZMBcG
A1UEAxMQQWxla3NhbmRhciBLZWxlYzEtMCsGCSqGSIb3DQEJARYeYWxla3NhbmRh
ci5rZWxlY0BldGYudW5pYmwub3JnMIIBIjANBgkqhkiG9w0BAQEFAAOCAQ8AMIIB
CgKCAQEAngXW2/9omH46t0ZIAG9kAToBjMKBmMOIA1QPYbBitQv9u4Q+H1yE5ix8
sXsF9rC690XI8JaSww878rPF1l0PgAR2AEra7cSAyrsA8vdz9Z6OmBFMfuyKXhkj
sB6OM/raUj34pWb4Rl/THNRxitMRlfGfDMomjwB1lLKloLhuw+BTnjopfLwXXOaK
fHne3z9JqHI7x/iWC5WUohDkSpJ/tjaXORi3SYkcYpodAeIEfZ1pccGDpDX/yoQ8
FNmhsx9jLEdpshXDc+PKmmgvwLwGbNSBE0rLfuG6AB2NMRuaMjftGZ1Mf7zMWj/E
dyVuzgx4n2Dl62PeYOC2nm8+WFaP6wIDAQABo4HEMIHBMAkGA1UdEwQCMAAwEwYD
VR0lBAwwCgYIKwYBBQUHAwIwLAYJYIZIAYb4QgENBB8WHU9wZW5TU0wgR2VuZXJh
dGVkIENlcnRpZmljYXRlMB0GA1UdDgQWBBRvsey+UnR37jmF6gzZtJco62Zy3TAf
BgNVHSMEGDAWgBT2OMcUqr/yReGJrBffOCBykKpksjAxBgNVHR8EKjAoMCagJKAi
hiBodHRwOi8vMTkyLjE2OC4yMS44OS9yb290Y3JsLnBlbTANBgkqhkiG9w0BAQUF
AAOCAQEAhrzF3DM8Y5mQ5NsAzk5jXN8kizaCqT5Epap/bKj0eFeT2oRSK7m0M87F
8VxQ96IeRVwzg4cAF9X6fz1fBZH5Fc8yos13T34sEiKRVm5OtyF6oNklvQC9arjh
a2uUFgXAq+s3wK0VLbAK0TzxRAYp4jC073l9DcBkrWw8VMpTU4i/mBVIbIH5cefi
vABoFmq8mzuCO9BQ2IPOlrGK9fI3hLj9RWVKMP8kAO7/tFk9PbIlispRyG2KkiaI
uHLBf67HrvaztnegyaMAnOCsP9zE75vC67k6jXAhjPHFgkmRWaJKcDx8EkXfepbx
9M46OqTq7g3S35+2ZFybShPliKCoRg==
-----END CERTIFICATE-----
