Certificate:
    Data:
        Version: 3 (0x2)
        Serial Number: 15 (0xf)
    Signature Algorithm: sha1WithRSAEncryption
        Issuer: C=BA, ST=RS, O=Elektrotehnicki fakultet, OU=CA_ETFBL, CN=CA_ETFBL/emailAddress=info@etf.unibl.org
        Validity
            Not Before: Aug 26 23:49:22 2019 GMT
            Not After : Aug 25 23:49:22 2020 GMT
        Subject: C=BA, ST=RS, O=Elektrotehnicki fakultet, OU=CA_ETFBL, CN=Kristijan Stepanov/emailAddress=kristijan.stepanov@student.etf.unibl.org
        Subject Public Key Info:
            Public Key Algorithm: rsaEncryption
                Public-Key: (2048 bit)
                Modulus:
                    00:9b:44:43:15:91:07:b0:2f:dd:fd:7a:fe:bc:de:
                    e3:98:72:e0:d1:14:c5:85:02:c4:19:a1:86:2c:c3:
                    36:79:17:b8:5e:b8:32:0f:1c:8c:bc:38:08:81:70:
                    d4:3c:85:11:5a:8d:89:7f:68:4d:36:8e:ea:84:1b:
                    51:4a:45:95:74:6c:fc:84:98:d0:9b:2b:e6:f7:da:
                    ea:89:d2:14:fd:3f:94:7a:74:3f:0e:0e:75:75:6d:
                    77:42:1f:a1:37:53:ca:82:bc:e1:00:6d:16:f4:c7:
                    f2:5b:40:99:b8:57:b0:b3:77:54:a3:a1:a5:3d:d1:
                    5e:c8:f9:0b:0f:26:d4:a1:cf:dd:a2:ed:a3:e9:87:
                    39:dd:ef:0a:0f:f9:29:b1:53:9c:6c:f8:5c:fa:9c:
                    f6:e8:46:8b:45:a2:b3:b8:76:a3:49:59:9d:6c:6e:
                    33:b2:83:c6:0e:2a:2e:ff:e8:3c:d9:be:0f:7e:72:
                    1d:2a:8d:3a:3b:cd:9e:77:3b:8e:f7:7a:c6:26:51:
                    35:7b:c4:a9:60:84:f6:6e:fa:90:82:64:de:e9:7d:
                    30:d4:89:0c:ea:e3:12:70:5d:4a:79:bd:e0:e6:f6:
                    47:87:4f:88:9f:c1:3a:72:8b:44:86:34:30:26:39:
                    3b:e8:04:67:0d:61:7a:fa:f7:d4:41:5b:a7:0f:46:
                    a4:1d
                Exponent: 65537 (0x10001)
        X509v3 extensions:
            X509v3 Basic Constraints: 
                CA:FALSE
            X509v3 Extended Key Usage: 
                TLS Web Client Authentication
            Netscape Comment: 
                OpenSSL Generated Certificate
            X509v3 Subject Key Identifier: 
                50:FD:39:DA:A7:CB:E0:4D:CE:72:77:B1:46:F7:B7:1D:99:00:49:59
            X509v3 Authority Key Identifier: 
                keyid:F6:38:C7:14:AA:BF:F2:45:E1:89:AC:17:DF:38:20:72:90:AA:64:B2

            X509v3 CRL Distribution Points: 

                Full Name:
                  URI:http://192.168.21.89/rootcrl.pem

    Signature Algorithm: sha1WithRSAEncryption
         2a:99:ac:1d:67:bc:00:bd:62:6d:9e:41:be:c9:47:4b:85:ff:
         cf:2c:3c:8d:f6:3b:ce:39:90:2c:d4:a5:6f:8c:11:f6:a2:e6:
         e9:01:be:f7:7d:93:d1:d0:9d:ed:55:0f:f4:20:ce:a2:3c:64:
         31:4c:a2:e5:44:8a:93:74:15:6d:ec:05:c6:fa:e5:c5:34:40:
         f1:9e:80:c1:b2:f8:f1:b9:c5:25:b5:2c:1e:16:50:19:56:c9:
         55:19:df:0b:9c:1a:0a:93:a9:75:6b:a0:63:0f:3e:fd:27:48:
         bb:db:24:42:50:8d:1f:f2:18:a8:ac:b5:4b:50:7e:ea:bc:da:
         f4:6a:2c:0e:c7:ab:0b:0d:1d:cf:d1:1d:53:c9:14:c4:44:f1:
         2b:a9:98:20:90:be:96:ee:ad:8a:97:cd:fa:37:14:4d:d8:93:
         4b:9f:83:21:76:87:a4:b5:81:1f:52:aa:2b:f8:e5:57:12:4f:
         3f:12:b8:11:65:c8:2a:a7:e3:e0:28:5a:71:42:9e:6f:ba:8d:
         53:e9:d3:dc:61:8e:a2:2c:b4:28:fc:92:a6:21:f1:8f:cf:d3:
         2e:a2:87:8c:c8:47:98:21:d6:b7:d7:c0:7f:fc:ca:bb:c9:d4:
         c4:15:73:96:b7:35:d4:b2:2c:eb:33:22:0f:5f:e6:32:b4:e6:
         86:27:00:c5
-----BEGIN CERTIFICATE-----
MIIEbjCCA1agAwIBAgIBDzANBgkqhkiG9w0BAQUFADCBhjELMAkGA1UEBhMCQkEx
CzAJBgNVBAgTAlJTMSEwHwYDVQQKExhFbGVrdHJvdGVobmlja2kgZmFrdWx0ZXQx
ETAPBgNVBAsUCENBX0VURkJMMREwDwYDVQQDFAhDQV9FVEZCTDEhMB8GCSqGSIb3
DQEJARYSaW5mb0BldGYudW5pYmwub3JnMB4XDTE5MDgyNjIzNDkyMloXDTIwMDgy
NTIzNDkyMlowgaYxCzAJBgNVBAYTAkJBMQswCQYDVQQIEwJSUzEhMB8GA1UEChMY
RWxla3Ryb3RlaG5pY2tpIGZha3VsdGV0MREwDwYDVQQLFAhDQV9FVEZCTDEbMBkG
A1UEAxMSS3Jpc3RpamFuIFN0ZXBhbm92MTcwNQYJKoZIhvcNAQkBFihrcmlzdGlq
YW4uc3RlcGFub3ZAc3R1ZGVudC5ldGYudW5pYmwub3JnMIIBIjANBgkqhkiG9w0B
AQEFAAOCAQ8AMIIBCgKCAQEAm0RDFZEHsC/d/Xr+vN7jmHLg0RTFhQLEGaGGLMM2
eRe4XrgyDxyMvDgIgXDUPIURWo2Jf2hNNo7qhBtRSkWVdGz8hJjQmyvm99rqidIU
/T+UenQ/Dg51dW13Qh+hN1PKgrzhAG0W9MfyW0CZuFews3dUo6GlPdFeyPkLDybU
oc/dou2j6Yc53e8KD/kpsVOcbPhc+pz26EaLRaKzuHajSVmdbG4zsoPGDiou/+g8
2b4PfnIdKo06O82edzuO93rGJlE1e8SpYIT2bvqQgmTe6X0w1IkM6uMScF1Keb3g
5vZHh0+In8E6cotEhjQwJjk76ARnDWF6+vfUQVunD0akHQIDAQABo4HEMIHBMAkG
A1UdEwQCMAAwEwYDVR0lBAwwCgYIKwYBBQUHAwIwLAYJYIZIAYb4QgENBB8WHU9w
ZW5TU0wgR2VuZXJhdGVkIENlcnRpZmljYXRlMB0GA1UdDgQWBBRQ/Tnap8vgTc5y
d7FG97cdmQBJWTAfBgNVHSMEGDAWgBT2OMcUqr/yReGJrBffOCBykKpksjAxBgNV
HR8EKjAoMCagJKAihiBodHRwOi8vMTkyLjE2OC4yMS44OS9yb290Y3JsLnBlbTAN
BgkqhkiG9w0BAQUFAAOCAQEAKpmsHWe8AL1ibZ5BvslHS4X/zyw8jfY7zjmQLNSl
b4wR9qLm6QG+932T0dCd7VUP9CDOojxkMUyi5USKk3QVbewFxvrlxTRA8Z6AwbL4
8bnFJbUsHhZQGVbJVRnfC5waCpOpdWugYw8+/SdIu9skQlCNH/IYqKy1S1B+6rza
9GosDserCw0dz9EdU8kUxETxK6mYIJC+lu6tipfN+jcUTdiTS5+DIXaHpLWBH1Kq
K/jlVxJPPxK4EWXIKqfj4ChacUKeb7qNU+nT3GGOoiy0KPySpiHxj8/TLqKHjMhH
mCHWt9fAf/zKu8nUxBVzlrc11LIs6zMiD1/mMrTmhicAxQ==
-----END CERTIFICATE-----
