Certificate:
    Data:
        Version: 3 (0x2)
        Serial Number: 17 (0x11)
    Signature Algorithm: sha1WithRSAEncryption
        Issuer: C=BA, ST=RS, O=Elektrotehnicki fakultet, OU=CA_ETFBL, CN=CA_ETFBL/emailAddress=info@etf.unibl.org
        Validity
            Not Before: Aug 29 20:59:33 2019 GMT
            Not After : Aug 28 20:59:33 2020 GMT
        Subject: C=BA, ST=RS, O=Elektrotehnicki fakultet, OU=CA_ETFBL, CN=Neven Cvetnic/emailAddress=neven.cvetnic@gmail.com
        Subject Public Key Info:
            Public Key Algorithm: rsaEncryption
                Public-Key: (2048 bit)
                Modulus:
                    00:c9:8e:31:35:0a:d0:ef:55:1d:2c:b5:6d:ac:60:
                    ed:70:44:60:cd:cc:97:66:a8:3e:d8:b5:2a:b7:a2:
                    c9:51:2b:e8:fa:a2:8b:29:38:c7:b4:f0:08:2a:67:
                    23:cb:02:54:c4:f8:9c:a1:f6:27:fc:3a:06:41:bf:
                    e1:d3:88:44:76:dd:ce:ff:9e:7a:1d:ec:4b:cb:43:
                    64:ee:b5:e1:e1:13:a0:2b:4d:e9:d4:fb:cd:b3:da:
                    06:05:49:32:83:6b:99:2e:61:46:b5:e7:ed:d9:10:
                    42:d9:7d:b0:53:43:44:39:ad:90:0b:83:2f:4d:c3:
                    a4:85:49:07:3c:58:49:96:fe:f6:e2:a3:e8:da:be:
                    bf:fa:f9:6c:c3:2c:9c:0c:8a:ae:da:4d:c1:2a:18:
                    8c:a3:49:2c:c6:79:15:55:91:03:f3:f5:fb:be:52:
                    3b:76:84:70:4e:74:6f:b8:ad:ae:f1:14:cc:3c:97:
                    0c:bf:31:c1:df:4a:00:77:2d:2b:9d:b7:61:a0:a2:
                    af:4f:54:35:db:c7:ac:91:6e:38:50:a9:fa:f2:41:
                    47:8b:f6:35:45:09:cf:69:75:ea:81:20:00:18:a5:
                    45:a2:3e:6a:23:68:dc:ec:c2:14:51:48:26:ae:2d:
                    7d:ca:44:9f:cf:25:9f:af:be:79:5f:f3:ef:2b:fa:
                    da:35
                Exponent: 65537 (0x10001)
        X509v3 extensions:
            X509v3 Basic Constraints: 
                CA:FALSE
            X509v3 Extended Key Usage: 
                TLS Web Client Authentication
            Netscape Comment: 
                OpenSSL Generated Certificate
            X509v3 Subject Key Identifier: 
                76:19:D2:C2:2A:8F:26:ED:8F:47:C5:44:52:37:53:27:BB:DF:4F:AB
            X509v3 Authority Key Identifier: 
                keyid:F6:38:C7:14:AA:BF:F2:45:E1:89:AC:17:DF:38:20:72:90:AA:64:B2

            X509v3 CRL Distribution Points: 

                Full Name:
                  URI:http://192.168.21.89/rootcrl.pem

    Signature Algorithm: sha1WithRSAEncryption
         a2:88:f3:a0:cd:85:20:1d:a2:11:d0:5b:f5:ff:5f:21:0b:2a:
         fc:f8:49:b7:17:47:b6:82:46:6f:f5:bd:89:d2:10:d1:55:d1:
         8e:af:8e:d9:9a:5f:19:18:d5:69:60:03:53:60:ab:1e:28:bc:
         1e:4e:67:7b:23:6e:b6:0b:74:a9:a0:d4:a8:ec:13:c6:70:48:
         0a:53:67:aa:a0:31:4a:0e:c0:ba:c3:ed:81:a2:8a:21:0f:2f:
         ce:46:6b:6b:fb:f5:64:52:cb:9f:0c:2a:5c:82:c0:2b:33:36:
         2c:ba:5d:9f:4c:7f:ff:cd:21:97:4b:57:b7:4f:d5:42:db:0e:
         46:ae:e9:26:0f:75:83:2a:65:a9:46:31:67:f2:28:a6:94:b1:
         f5:62:67:58:3b:a7:f1:ad:b1:b0:4a:6e:8e:4e:fc:99:37:5c:
         e3:19:16:aa:e6:6d:e0:2a:1d:88:0d:68:c4:71:fc:2c:27:86:
         6a:a2:d9:b8:0e:44:15:1d:73:0f:0c:2f:2e:95:19:e8:cc:c0:
         94:cf:ec:dc:a9:9b:2b:81:b7:7a:aa:b7:53:23:3c:e8:5e:82:
         56:55:b0:b0:24:a4:6a:6d:2d:4f:0f:2a:1b:1e:e3:e6:a3:c1:
         54:13:5a:f1:9a:c8:47:55:70:eb:af:f9:20:57:66:01:b8:cd:
         0e:cc:42:a8
-----BEGIN CERTIFICATE-----
MIIEWDCCA0CgAwIBAgIBETANBgkqhkiG9w0BAQUFADCBhjELMAkGA1UEBhMCQkEx
CzAJBgNVBAgTAlJTMSEwHwYDVQQKExhFbGVrdHJvdGVobmlja2kgZmFrdWx0ZXQx
ETAPBgNVBAsUCENBX0VURkJMMREwDwYDVQQDFAhDQV9FVEZCTDEhMB8GCSqGSIb3
DQEJARYSaW5mb0BldGYudW5pYmwub3JnMB4XDTE5MDgyOTIwNTkzM1oXDTIwMDgy
ODIwNTkzM1owgZAxCzAJBgNVBAYTAkJBMQswCQYDVQQIEwJSUzEhMB8GA1UEChMY
RWxla3Ryb3RlaG5pY2tpIGZha3VsdGV0MREwDwYDVQQLFAhDQV9FVEZCTDEWMBQG
A1UEAxMNTmV2ZW4gQ3ZldG5pYzEmMCQGCSqGSIb3DQEJARYXbmV2ZW4uY3ZldG5p
Y0BnbWFpbC5jb20wggEiMA0GCSqGSIb3DQEBAQUAA4IBDwAwggEKAoIBAQDJjjE1
CtDvVR0stW2sYO1wRGDNzJdmqD7YtSq3oslRK+j6oospOMe08AgqZyPLAlTE+Jyh
9if8OgZBv+HTiER23c7/nnod7EvLQ2TuteHhE6ArTenU+82z2gYFSTKDa5kuYUa1
5+3ZEELZfbBTQ0Q5rZALgy9Nw6SFSQc8WEmW/vbio+javr/6+WzDLJwMiq7aTcEq
GIyjSSzGeRVVkQPz9fu+Ujt2hHBOdG+4ra7xFMw8lwy/McHfSgB3LSudt2Ggoq9P
VDXbx6yRbjhQqfryQUeL9jVFCc9pdeqBIAAYpUWiPmojaNzswhRRSCauLX3KRJ/P
JZ+vvnlf8+8r+to1AgMBAAGjgcQwgcEwCQYDVR0TBAIwADATBgNVHSUEDDAKBggr
BgEFBQcDAjAsBglghkgBhvhCAQ0EHxYdT3BlblNTTCBHZW5lcmF0ZWQgQ2VydGlm
aWNhdGUwHQYDVR0OBBYEFHYZ0sIqjybtj0fFRFI3Uye730+rMB8GA1UdIwQYMBaA
FPY4xxSqv/JF4YmsF984IHKQqmSyMDEGA1UdHwQqMCgwJqAkoCKGIGh0dHA6Ly8x
OTIuMTY4LjIxLjg5L3Jvb3RjcmwucGVtMA0GCSqGSIb3DQEBBQUAA4IBAQCiiPOg
zYUgHaIR0Fv1/18hCyr8+Em3F0e2gkZv9b2J0hDRVdGOr47Zml8ZGNVpYANTYKse
KLweTmd7I262C3SpoNSo7BPGcEgKU2eqoDFKDsC6w+2BooohDy/ORmtr+/VkUsuf
DCpcgsArMzYsul2fTH//zSGXS1e3T9VC2w5GrukmD3WDKmWpRjFn8iimlLH1YmdY
O6fxrbGwSm6OTvyZN1zjGRaq5m3gKh2IDWjEcfwsJ4Zqotm4DkQVHXMPDC8ulRno
zMCUz+zcqZsrgbd6qrdTIzzoXoJWVbCwJKRqbS1PDyobHuPmo8FUE1rxmshHVXDr
r/kgV2YBuM0OzEKo
-----END CERTIFICATE-----
