Certificate:
    Data:
        Version: 3 (0x2)
        Serial Number: 5 (0x5)
    Signature Algorithm: sha1WithRSAEncryption
        Issuer: C=BA, ST=RS, O=Elektrotehnicki fakultet, OU=CA_ETFBL, CN=CA_ETFBL/emailAddress=info@etf.unibl.org
        Validity
            Not Before: Aug 22 00:55:32 2019 GMT
            Not After : Aug 21 00:55:32 2020 GMT
        Subject: C=BA, ST=RS, O=Elektrotehnicki fakultet, OU=CA_ETFBL, CN=Kristijan Stepanov/emailAddress=stepanov@teol.net
        Subject Public Key Info:
            Public Key Algorithm: rsaEncryption
                Public-Key: (2048 bit)
                Modulus:
                    00:dc:b0:70:23:51:39:12:ab:a5:1b:17:0c:1b:24:
                    51:89:f8:83:f2:6d:39:83:c8:16:17:33:d0:ed:af:
                    81:5b:bc:a3:0d:0c:f8:24:08:12:39:3e:e8:90:f2:
                    ef:73:f8:41:e0:6f:34:08:39:26:b7:2c:e3:29:ee:
                    3f:1c:ee:41:c7:06:78:4c:74:bf:d1:b6:3b:c2:74:
                    bd:3b:b5:9f:42:b6:9a:ae:4f:99:77:8c:e6:56:3e:
                    87:85:35:16:6e:25:53:73:c5:51:14:77:70:83:c2:
                    18:4c:97:82:a1:f1:d9:02:6e:45:04:6e:9f:bd:63:
                    aa:23:9a:1d:4f:a1:56:23:75:99:5c:37:9d:7d:83:
                    9c:02:c1:a7:aa:47:2c:fe:b5:22:50:a1:9f:e9:3b:
                    2f:ac:91:18:c4:16:83:37:05:32:af:f5:bc:2a:da:
                    0e:60:b2:7d:aa:e4:6d:aa:a0:9a:35:d0:0c:01:bf:
                    49:75:90:8f:1a:e8:8a:00:ae:04:5f:dc:37:92:de:
                    fc:21:43:1b:ef:2c:43:01:9f:23:91:18:11:67:c1:
                    c7:32:4b:dc:78:83:ee:cd:76:6b:e7:4a:81:a7:6c:
                    61:8a:15:a5:55:47:20:04:5b:f9:5f:12:2d:f3:44:
                    53:cc:86:35:65:dd:51:ec:81:71:99:6c:32:84:41:
                    c8:05
                Exponent: 65537 (0x10001)
        X509v3 extensions:
            X509v3 Basic Constraints: 
                CA:FALSE
            X509v3 Extended Key Usage: 
                TLS Web Client Authentication
            Netscape Comment: 
                OpenSSL Generated Certificate
            X509v3 Subject Key Identifier: 
                55:0E:DD:EB:B6:95:A4:E3:27:99:7B:B7:1B:F9:0E:3B:68:0A:C5:41
            X509v3 Authority Key Identifier: 
                keyid:F6:38:C7:14:AA:BF:F2:45:E1:89:AC:17:DF:38:20:72:90:AA:64:B2

            X509v3 CRL Distribution Points: 

                Full Name:
                  URI:http://192.168.21.89/rootcrl.pem

    Signature Algorithm: sha1WithRSAEncryption
         3b:d4:29:e9:3c:c8:81:68:f5:00:8e:36:57:94:53:4f:3d:15:
         86:6f:6d:8c:52:4c:72:83:f6:7a:fc:16:be:53:7d:3b:c8:60:
         e6:c4:d9:d6:a5:84:d4:53:16:7a:41:91:4e:6b:a5:fd:9f:ba:
         32:16:67:e4:90:8a:2d:98:aa:78:4d:ab:8e:72:2f:2d:d1:ca:
         09:78:22:85:c8:b9:49:47:5c:8a:68:0c:15:c8:c8:dd:55:41:
         75:c7:ee:30:d2:b1:42:b2:2c:49:05:b7:fb:cd:2d:69:ac:96:
         34:af:f5:ec:d6:d5:99:0f:b3:6e:70:61:cf:5c:e2:85:6f:d0:
         6a:66:2e:fc:5d:91:de:16:0c:f4:94:92:f8:a4:6e:1d:76:50:
         d0:f7:58:90:d0:58:e5:c8:25:a4:83:65:f1:b4:35:8b:f2:4a:
         8e:74:43:a4:0a:84:89:eb:3e:f6:fa:b7:2f:84:22:c2:d7:18:
         cd:8f:13:c5:f3:09:bd:da:87:38:dc:b4:20:20:6f:be:4a:6f:
         40:04:05:f3:9f:6d:6d:65:1a:d4:2d:eb:b4:b2:a4:20:78:11:
         27:49:90:d6:3b:71:d8:9f:73:21:72:6b:1e:ad:48:73:ef:93:
         3f:0a:f9:87:3d:e5:14:83:96:00:89:a2:9b:1b:a9:b0:c6:ea:
         f0:0a:54:89
-----BEGIN CERTIFICATE-----
MIIEVzCCAz+gAwIBAgIBBTANBgkqhkiG9w0BAQUFADCBhjELMAkGA1UEBhMCQkEx
CzAJBgNVBAgTAlJTMSEwHwYDVQQKExhFbGVrdHJvdGVobmlja2kgZmFrdWx0ZXQx
ETAPBgNVBAsUCENBX0VURkJMMREwDwYDVQQDFAhDQV9FVEZCTDEhMB8GCSqGSIb3
DQEJARYSaW5mb0BldGYudW5pYmwub3JnMB4XDTE5MDgyMjAwNTUzMloXDTIwMDgy
MTAwNTUzMlowgY8xCzAJBgNVBAYTAkJBMQswCQYDVQQIEwJSUzEhMB8GA1UEChMY
RWxla3Ryb3RlaG5pY2tpIGZha3VsdGV0MREwDwYDVQQLFAhDQV9FVEZCTDEbMBkG
A1UEAxMSS3Jpc3RpamFuIFN0ZXBhbm92MSAwHgYJKoZIhvcNAQkBFhFzdGVwYW5v
dkB0ZW9sLm5ldDCCASIwDQYJKoZIhvcNAQEBBQADggEPADCCAQoCggEBANywcCNR
ORKrpRsXDBskUYn4g/JtOYPIFhcz0O2vgVu8ow0M+CQIEjk+6JDy73P4QeBvNAg5
Jrcs4ynuPxzuQccGeEx0v9G2O8J0vTu1n0K2mq5PmXeM5lY+h4U1Fm4lU3PFURR3
cIPCGEyXgqHx2QJuRQRun71jqiOaHU+hViN1mVw3nX2DnALBp6pHLP61IlChn+k7
L6yRGMQWgzcFMq/1vCraDmCyfarkbaqgmjXQDAG/SXWQjxroigCuBF/cN5Le/CFD
G+8sQwGfI5EYEWfBxzJL3HiD7s12a+dKgadsYYoVpVVHIARb+V8SLfNEU8yGNWXd
UeyBcZlsMoRByAUCAwEAAaOBxDCBwTAJBgNVHRMEAjAAMBMGA1UdJQQMMAoGCCsG
AQUFBwMCMCwGCWCGSAGG+EIBDQQfFh1PcGVuU1NMIEdlbmVyYXRlZCBDZXJ0aWZp
Y2F0ZTAdBgNVHQ4EFgQUVQ7d67aVpOMnmXu3G/kOO2gKxUEwHwYDVR0jBBgwFoAU
9jjHFKq/8kXhiawX3zggcpCqZLIwMQYDVR0fBCowKDAmoCSgIoYgaHR0cDovLzE5
Mi4xNjguMjEuODkvcm9vdGNybC5wZW0wDQYJKoZIhvcNAQEFBQADggEBADvUKek8
yIFo9QCONleUU089FYZvbYxSTHKD9nr8Fr5TfTvIYObE2dalhNRTFnpBkU5rpf2f
ujIWZ+SQii2YqnhNq45yLy3Rygl4IoXIuUlHXIpoDBXIyN1VQXXH7jDSsUKyLEkF
t/vNLWmsljSv9ezW1ZkPs25wYc9c4oVv0GpmLvxdkd4WDPSUkvikbh12UND3WJDQ
WOXIJaSDZfG0NYvySo50Q6QKhInrPvb6ty+EIsLXGM2PE8XzCb3ahzjctCAgb75K
b0AEBfOfbW1lGtQt67SypCB4ESdJkNY7cdifcyFyax6tSHPvkz8K+Yc95RSDlgCJ
opsbqbDG6vAKVIk=
-----END CERTIFICATE-----
