Certificate:
    Data:
        Version: 3 (0x2)
        Serial Number: 6 (0x6)
    Signature Algorithm: sha1WithRSAEncryption
        Issuer: C=BA, ST=RS, O=Elektrotehnicki fakultet, OU=CA_ETFBL, CN=CA_ETFBL/emailAddress=info@etf.unibl.org
        Validity
            Not Before: Aug 22 11:38:38 2019 GMT
            Not After : Aug 27 11:38:38 2019 GMT
        Subject: C=BA, ST=RS, O=Elektrotehnicki fakultet, OU=CA_ETFBL, CN=Kript Kriptic/emailAddress=kript.kriptic@gmail.com
        Subject Public Key Info:
            Public Key Algorithm: rsaEncryption
                Public-Key: (2048 bit)
                Modulus:
                    00:aa:08:74:52:00:29:b9:c6:28:2c:72:b9:b2:e9:
                    99:89:b8:db:83:3b:a6:08:5f:6e:3c:9f:55:7a:16:
                    08:43:fa:0c:4e:ec:e4:1f:3d:fc:ca:cf:3b:34:b4:
                    6f:28:93:10:d7:e6:34:c1:59:7f:ce:ac:a5:d1:20:
                    b2:08:e8:cb:b5:a7:73:97:fc:ef:10:06:17:ba:02:
                    d4:58:c2:67:9a:6f:e4:c5:83:69:b8:b2:19:2a:85:
                    c9:30:b1:a8:a8:4e:e6:5e:8b:aa:52:4c:32:d5:0b:
                    0f:43:07:ef:82:d9:ba:c9:96:1a:cc:cd:d6:3e:4b:
                    06:6c:29:8f:55:13:4b:b8:0d:75:47:e0:31:c9:15:
                    4a:ae:ed:11:aa:51:72:f0:5b:2d:88:a6:2a:5c:f2:
                    12:27:7c:f7:c1:55:f5:bd:1f:54:6f:f9:05:f6:74:
                    f8:e6:f9:f4:a4:b5:40:12:89:da:1c:a2:2b:fb:51:
                    a9:a4:b1:9e:01:80:6d:6e:de:f6:ee:97:20:e5:6c:
                    ed:0b:5c:43:57:21:b2:e7:1a:89:1a:a7:53:d5:95:
                    ce:b8:3f:ba:8a:c4:20:70:87:af:50:01:9f:20:9a:
                    72:ca:c9:c5:ee:c6:67:95:82:2e:17:5d:0a:eb:7d:
                    3b:82:d0:ba:c2:18:90:b9:ea:96:35:68:5b:dc:17:
                    32:f9
                Exponent: 65537 (0x10001)
        X509v3 extensions:
            X509v3 Basic Constraints: 
                CA:FALSE
            X509v3 Extended Key Usage: 
                TLS Web Client Authentication
            Netscape Comment: 
                OpenSSL Generated Certificate
            X509v3 Subject Key Identifier: 
                25:AF:2E:BF:DB:0D:B3:CE:F1:C8:AF:D9:1D:CB:CE:E6:D4:4D:02:98
            X509v3 Authority Key Identifier: 
                keyid:F6:38:C7:14:AA:BF:F2:45:E1:89:AC:17:DF:38:20:72:90:AA:64:B2

            X509v3 CRL Distribution Points: 

                Full Name:
                  URI:http://192.168.21.89/rootcrl.pem

    Signature Algorithm: sha1WithRSAEncryption
         d1:03:c8:07:1c:d6:db:54:3d:5d:12:2e:a4:f0:bd:88:0e:37:
         06:68:c1:a9:de:97:04:1f:5d:0e:91:7a:7c:95:4c:9a:c7:08:
         38:6b:58:57:00:b1:f3:bb:d5:22:0b:00:59:0d:98:b8:48:aa:
         c2:00:18:78:30:e5:62:ae:76:e3:ce:0a:a7:50:b7:09:46:1e:
         b1:0c:b8:c7:c6:f8:ef:88:2d:a8:50:dc:78:f1:8e:5c:55:6b:
         18:38:43:54:ea:ee:e2:86:f2:0d:fd:94:b2:40:39:f2:63:a1:
         03:ba:00:13:73:07:53:a0:ea:49:3a:55:fd:af:3c:f2:71:58:
         20:87:1e:72:bb:09:41:3a:99:d8:64:86:74:71:c7:55:3e:00:
         7a:0e:4f:cd:e5:41:51:f6:58:b8:59:ab:f9:72:33:de:64:ff:
         cb:64:19:3d:1d:88:c8:79:df:b1:fa:6c:0f:c0:4f:31:f6:9d:
         7e:da:4d:4e:75:b8:e9:9e:1a:ab:b4:40:89:f2:7e:f6:bd:bf:
         ae:0f:4e:38:00:5d:2d:db:77:91:ae:7a:8b:04:83:c3:5f:f3:
         34:ec:7a:d3:bb:78:51:be:93:44:57:7b:e9:a1:72:e8:8f:57:
         78:e3:fb:84:ce:1d:30:c3:e1:e0:df:8b:3d:09:ee:e8:87:3a:
         07:eb:fb:7f
-----BEGIN CERTIFICATE-----
MIIEWDCCA0CgAwIBAgIBBjANBgkqhkiG9w0BAQUFADCBhjELMAkGA1UEBhMCQkEx
CzAJBgNVBAgTAlJTMSEwHwYDVQQKExhFbGVrdHJvdGVobmlja2kgZmFrdWx0ZXQx
ETAPBgNVBAsUCENBX0VURkJMMREwDwYDVQQDFAhDQV9FVEZCTDEhMB8GCSqGSIb3
DQEJARYSaW5mb0BldGYudW5pYmwub3JnMB4XDTE5MDgyMjExMzgzOFoXDTE5MDgy
NzExMzgzOFowgZAxCzAJBgNVBAYTAkJBMQswCQYDVQQIEwJSUzEhMB8GA1UEChMY
RWxla3Ryb3RlaG5pY2tpIGZha3VsdGV0MREwDwYDVQQLFAhDQV9FVEZCTDEWMBQG
A1UEAxMNS3JpcHQgS3JpcHRpYzEmMCQGCSqGSIb3DQEJARYXa3JpcHQua3JpcHRp
Y0BnbWFpbC5jb20wggEiMA0GCSqGSIb3DQEBAQUAA4IBDwAwggEKAoIBAQCqCHRS
ACm5xigscrmy6ZmJuNuDO6YIX248n1V6FghD+gxO7OQfPfzKzzs0tG8okxDX5jTB
WX/OrKXRILII6Mu1p3OX/O8QBhe6AtRYwmeab+TFg2m4shkqhckwsaioTuZei6pS
TDLVCw9DB++C2brJlhrMzdY+SwZsKY9VE0u4DXVH4DHJFUqu7RGqUXLwWy2Ipipc
8hInfPfBVfW9H1Rv+QX2dPjm+fSktUASidocoiv7UamksZ4BgG1u3vbulyDlbO0L
XENXIbLnGokap1PVlc64P7qKxCBwh69QAZ8gmnLKycXuxmeVgi4XXQrrfTuC0LrC
GJC56pY1aFvcFzL5AgMBAAGjgcQwgcEwCQYDVR0TBAIwADATBgNVHSUEDDAKBggr
BgEFBQcDAjAsBglghkgBhvhCAQ0EHxYdT3BlblNTTCBHZW5lcmF0ZWQgQ2VydGlm
aWNhdGUwHQYDVR0OBBYEFCWvLr/bDbPO8civ2R3LzubUTQKYMB8GA1UdIwQYMBaA
FPY4xxSqv/JF4YmsF984IHKQqmSyMDEGA1UdHwQqMCgwJqAkoCKGIGh0dHA6Ly8x
OTIuMTY4LjIxLjg5L3Jvb3RjcmwucGVtMA0GCSqGSIb3DQEBBQUAA4IBAQDRA8gH
HNbbVD1dEi6k8L2IDjcGaMGp3pcEH10OkXp8lUyaxwg4a1hXALHzu9UiCwBZDZi4
SKrCABh4MOVirnbjzgqnULcJRh6xDLjHxvjviC2oUNx48Y5cVWsYOENU6u7ihvIN
/ZSyQDnyY6EDugATcwdToOpJOlX9rzzycVgghx5yuwlBOpnYZIZ0ccdVPgB6Dk/N
5UFR9li4Wav5cjPeZP/LZBk9HYjIed+x+mwPwE8x9p1+2k1OdbjpnhqrtECJ8n72
vb+uD044AF0t23eRrnqLBIPDX/M07HrTu3hRvpNEV3vpoXLoj1d44/uEzh0ww+Hg
34s9Ce7ohzoH6/t/
-----END CERTIFICATE-----
