Certificate:
    Data:
        Version: 3 (0x2)
        Serial Number: 7 (0x7)
    Signature Algorithm: sha1WithRSAEncryption
        Issuer: C=BA, ST=RS, O=Elektrotehnicki fakultet, OU=CA_ETFBL, CN=CA_ETFBL/emailAddress=info@etf.unibl.org
        Validity
            Not Before: Aug 22 11:39:27 2019 GMT
            Not After : Aug 27 11:39:27 2019 GMT
        Subject: C=BA, ST=RS, O=Elektrotehnicki fakultet, OU=CA_ETFBL, CN=Sekjur Sekjuritic/emailAddress=sekjur.sekjuritic@gmail.com
        Subject Public Key Info:
            Public Key Algorithm: rsaEncryption
                Public-Key: (2048 bit)
                Modulus:
                    00:be:c2:fb:8e:5a:eb:24:bd:88:aa:da:54:2a:2f:
                    99:4e:d5:43:ce:a0:cc:9e:df:f3:3a:e3:eb:11:5f:
                    ea:79:b8:d0:34:30:d2:40:db:a4:72:cb:66:d6:2f:
                    1f:21:fe:e3:e9:4f:4c:e3:62:15:f6:dc:06:af:11:
                    ca:35:f5:21:53:46:f2:b8:bd:dc:60:79:e0:3f:10:
                    c5:e6:11:de:c1:3c:86:95:33:42:fb:d9:41:23:e5:
                    7e:44:7c:9b:04:70:6e:85:22:f3:ce:9b:41:3c:84:
                    67:ac:e0:8f:a9:11:56:a8:41:a3:ac:ba:b0:bf:0f:
                    37:af:94:fb:0d:a0:dd:bb:9e:07:43:e7:56:07:84:
                    3e:c0:f1:b0:e3:92:1c:2a:59:09:ee:7d:52:7a:12:
                    24:e0:85:f0:c7:0d:19:ca:05:67:08:47:aa:d8:21:
                    f7:ca:07:4c:c0:3a:dc:9a:1e:d0:3f:6d:07:dc:c9:
                    4e:bb:5e:c0:62:e7:b3:7e:48:05:bd:de:68:cb:34:
                    88:ad:44:bf:8a:97:c1:fa:dd:34:2a:d1:25:1a:07:
                    e6:39:ae:32:d1:bb:24:d0:e6:4d:ad:b4:fc:d9:79:
                    15:c2:ad:1d:dc:ec:7e:dd:45:bb:78:19:79:13:e6:
                    6b:e2:dc:d3:66:41:e6:26:d5:67:5a:b9:46:55:51:
                    15:11
                Exponent: 65537 (0x10001)
        X509v3 extensions:
            X509v3 Basic Constraints: 
                CA:FALSE
            X509v3 Extended Key Usage: 
                TLS Web Client Authentication
            Netscape Comment: 
                OpenSSL Generated Certificate
            X509v3 Subject Key Identifier: 
                F6:5D:FF:C2:4E:38:2B:F9:BF:1D:02:46:F3:31:85:2E:DB:19:6E:BB
            X509v3 Authority Key Identifier: 
                keyid:F6:38:C7:14:AA:BF:F2:45:E1:89:AC:17:DF:38:20:72:90:AA:64:B2

            X509v3 CRL Distribution Points: 

                Full Name:
                  URI:http://192.168.21.89/rootcrl.pem

    Signature Algorithm: sha1WithRSAEncryption
         93:4c:f6:b4:56:5d:7d:dd:19:9d:7d:bc:6e:81:8f:09:6e:82:
         43:94:77:32:e1:48:9f:cd:6f:93:98:b8:51:b2:a5:00:dd:d8:
         0b:4c:00:a7:f5:f8:67:f6:89:27:f0:b1:bc:43:42:1e:3e:63:
         e9:a4:a7:72:68:84:5b:02:e2:e3:ae:16:cf:5b:0d:c8:1c:26:
         fb:94:d7:29:53:ef:eb:01:01:ca:fa:70:c2:b8:87:25:5c:f1:
         64:fd:2e:43:36:b2:6e:89:08:0d:e8:1b:6b:78:21:f1:46:a3:
         89:41:15:7a:f4:b2:a3:bf:a9:e3:65:86:84:4d:93:b4:66:35:
         d4:e6:2d:4d:8f:eb:d8:3a:2e:bf:af:e2:f0:72:eb:03:0f:4c:
         b1:25:93:59:63:12:44:0d:46:ad:3b:72:29:e2:fa:32:2e:a2:
         51:4c:01:cc:ff:fa:36:2b:82:bd:d2:06:1e:dc:68:a7:7e:27:
         06:1e:6d:d6:a3:b4:85:f9:f2:86:f4:7a:50:c0:8f:85:2e:f0:
         38:b0:b5:91:be:9c:22:42:7b:44:81:05:ff:94:cb:1e:43:54:
         46:a5:db:12:c0:3a:c5:8b:03:c5:a2:35:4a:25:89:c8:d4:8c:
         10:a9:a8:ba:15:3b:c2:86:97:f3:b0:a7:fd:70:e9:3c:e9:86:
         e8:12:59:63
-----BEGIN CERTIFICATE-----
MIIEYDCCA0igAwIBAgIBBzANBgkqhkiG9w0BAQUFADCBhjELMAkGA1UEBhMCQkEx
CzAJBgNVBAgTAlJTMSEwHwYDVQQKExhFbGVrdHJvdGVobmlja2kgZmFrdWx0ZXQx
ETAPBgNVBAsUCENBX0VURkJMMREwDwYDVQQDFAhDQV9FVEZCTDEhMB8GCSqGSIb3
DQEJARYSaW5mb0BldGYudW5pYmwub3JnMB4XDTE5MDgyMjExMzkyN1oXDTE5MDgy
NzExMzkyN1owgZgxCzAJBgNVBAYTAkJBMQswCQYDVQQIEwJSUzEhMB8GA1UEChMY
RWxla3Ryb3RlaG5pY2tpIGZha3VsdGV0MREwDwYDVQQLFAhDQV9FVEZCTDEaMBgG
A1UEAxMRU2VranVyIFNla2p1cml0aWMxKjAoBgkqhkiG9w0BCQEWG3Nla2p1ci5z
ZWtqdXJpdGljQGdtYWlsLmNvbTCCASIwDQYJKoZIhvcNAQEBBQADggEPADCCAQoC
ggEBAL7C+45a6yS9iKraVCovmU7VQ86gzJ7f8zrj6xFf6nm40DQw0kDbpHLLZtYv
HyH+4+lPTONiFfbcBq8RyjX1IVNG8ri93GB54D8QxeYR3sE8hpUzQvvZQSPlfkR8
mwRwboUi886bQTyEZ6zgj6kRVqhBo6y6sL8PN6+U+w2g3bueB0PnVgeEPsDxsOOS
HCpZCe59UnoSJOCF8McNGcoFZwhHqtgh98oHTMA63Joe0D9tB9zJTrtewGLns35I
Bb3eaMs0iK1Ev4qXwfrdNCrRJRoH5jmuMtG7JNDmTa20/Nl5FcKtHdzsft1Fu3gZ
eRPma+Lc02ZB5ibVZ1q5RlVRFRECAwEAAaOBxDCBwTAJBgNVHRMEAjAAMBMGA1Ud
JQQMMAoGCCsGAQUFBwMCMCwGCWCGSAGG+EIBDQQfFh1PcGVuU1NMIEdlbmVyYXRl
ZCBDZXJ0aWZpY2F0ZTAdBgNVHQ4EFgQU9l3/wk44K/m/HQJG8zGFLtsZbrswHwYD
VR0jBBgwFoAU9jjHFKq/8kXhiawX3zggcpCqZLIwMQYDVR0fBCowKDAmoCSgIoYg
aHR0cDovLzE5Mi4xNjguMjEuODkvcm9vdGNybC5wZW0wDQYJKoZIhvcNAQEFBQAD
ggEBAJNM9rRWXX3dGZ19vG6BjwlugkOUdzLhSJ/Nb5OYuFGypQDd2AtMAKf1+Gf2
iSfwsbxDQh4+Y+mkp3JohFsC4uOuFs9bDcgcJvuU1ylT7+sBAcr6cMK4hyVc8WT9
LkM2sm6JCA3oG2t4IfFGo4lBFXr0sqO/qeNlhoRNk7RmNdTmLU2P69g6Lr+v4vBy
6wMPTLElk1ljEkQNRq07cini+jIuolFMAcz/+jYrgr3SBh7caKd+JwYebdajtIX5
8ob0elDAj4Uu8DiwtZG+nCJCe0SBBf+Uyx5DVEal2xLAOsWLA8WiNUolicjUjBCp
qLoVO8KGl/Owp/1w6TzphugSWWM=
-----END CERTIFICATE-----
