Certificate:
    Data:
        Version: 3 (0x2)
        Serial Number: 8 (0x8)
    Signature Algorithm: sha1WithRSAEncryption
        Issuer: C=BA, ST=RS, O=Elektrotehnicki fakultet, OU=CA_ETFBL, CN=CA_ETFBL/emailAddress=info@etf.unibl.org
        Validity
            Not Before: Aug 22 11:39:47 2019 GMT
            Not After : Aug 27 11:39:47 2019 GMT
        Subject: C=BA, ST=RS, O=Elektrotehnicki fakultet, OU=CA_ETFBL, CN=Zastit Zastitic/emailAddress=zastit.zastitic@gmail.com
        Subject Public Key Info:
            Public Key Algorithm: rsaEncryption
                Public-Key: (2048 bit)
                Modulus:
                    00:bd:02:35:12:13:f3:85:0d:d5:d4:dc:c7:64:8c:
                    99:cf:f1:96:a3:c0:33:15:11:33:7e:91:63:50:0b:
                    e8:6a:1c:15:26:43:a4:42:b7:6e:98:ca:4b:74:4b:
                    20:89:ab:fc:ec:f4:c5:b3:01:56:46:ae:b4:ae:19:
                    f4:03:6c:38:3f:5a:59:0e:6b:51:b6:7b:aa:fb:5c:
                    95:c4:fd:26:3b:19:d4:14:06:9f:4a:e1:28:0c:b0:
                    3a:60:d1:29:63:2e:77:f2:ab:a1:15:a5:9c:72:14:
                    3b:58:66:af:c4:de:a3:72:9e:7c:06:bc:ed:00:ec:
                    ca:d2:34:97:de:06:99:e1:cc:f3:15:b6:73:88:f8:
                    92:67:8a:2d:24:49:ca:63:11:38:a4:eb:1f:73:87:
                    20:f6:93:df:d3:c9:a6:e3:76:02:7e:68:ea:25:d3:
                    cb:d0:bc:85:f6:6e:83:54:e2:ca:20:1c:13:fb:ac:
                    66:98:b7:7b:65:c0:5d:e1:f1:e2:bc:51:3d:f8:3c:
                    d3:07:7c:42:58:04:e3:b1:31:d3:78:e1:a3:a7:1c:
                    20:5b:2b:95:17:b9:9d:bb:fa:b7:93:b7:b7:b2:82:
                    9f:1b:3a:3a:15:50:bc:fb:72:4a:73:d5:e8:9e:52:
                    b9:6d:41:a0:93:50:44:3e:79:c3:38:c1:ce:2e:46:
                    00:9d
                Exponent: 65537 (0x10001)
        X509v3 extensions:
            X509v3 Basic Constraints: 
                CA:FALSE
            X509v3 Extended Key Usage: 
                TLS Web Client Authentication
            Netscape Comment: 
                OpenSSL Generated Certificate
            X509v3 Subject Key Identifier: 
                93:88:F4:04:25:5A:9D:3E:DE:74:A1:0F:50:AD:25:8B:66:EA:2F:13
            X509v3 Authority Key Identifier: 
                keyid:F6:38:C7:14:AA:BF:F2:45:E1:89:AC:17:DF:38:20:72:90:AA:64:B2

            X509v3 CRL Distribution Points: 

                Full Name:
                  URI:http://192.168.21.89/rootcrl.pem

    Signature Algorithm: sha1WithRSAEncryption
         48:c0:4f:c1:f2:d0:25:55:d4:a0:88:b0:52:8a:96:a3:fd:23:
         33:af:91:de:5c:40:f9:28:2f:64:51:1f:af:91:c6:9d:ed:13:
         e4:16:13:a2:97:eb:b8:3f:12:10:93:63:c8:4a:60:1c:2f:4e:
         d7:2f:dc:21:e3:b2:9b:de:67:96:d6:b5:f6:1c:91:30:2e:05:
         84:44:21:23:60:98:a8:9b:7a:74:fb:11:fa:a2:d5:ba:4d:fa:
         a2:38:58:e8:84:cf:60:fc:7e:39:67:1c:d0:97:49:de:a3:b0:
         cb:36:7b:24:1d:23:cc:c6:93:09:d9:5b:3c:a7:0d:56:39:12:
         df:34:63:34:37:db:d5:69:3c:5d:9b:8b:44:fe:8d:aa:bb:fe:
         d9:fc:7b:67:ae:e2:ea:73:22:84:ec:c8:dd:1d:05:1b:48:1e:
         bc:2e:26:8f:8c:be:06:ce:24:38:17:5f:5c:c4:25:cf:43:42:
         9c:56:d6:63:5e:48:fd:e6:f8:83:45:12:34:c4:04:5c:cf:49:
         18:f8:e7:25:f7:c0:aa:3d:7e:21:85:69:be:5a:4d:38:59:09:
         d0:22:1c:59:99:72:cd:12:a9:d1:a4:55:46:df:97:a6:13:fd:
         0b:84:26:fd:9d:44:1e:6f:04:eb:66:4e:42:02:87:55:ec:5b:
         cd:bf:12:c2
-----BEGIN CERTIFICATE-----
MIIEXDCCA0SgAwIBAgIBCDANBgkqhkiG9w0BAQUFADCBhjELMAkGA1UEBhMCQkEx
CzAJBgNVBAgTAlJTMSEwHwYDVQQKExhFbGVrdHJvdGVobmlja2kgZmFrdWx0ZXQx
ETAPBgNVBAsUCENBX0VURkJMMREwDwYDVQQDFAhDQV9FVEZCTDEhMB8GCSqGSIb3
DQEJARYSaW5mb0BldGYudW5pYmwub3JnMB4XDTE5MDgyMjExMzk0N1oXDTE5MDgy
NzExMzk0N1owgZQxCzAJBgNVBAYTAkJBMQswCQYDVQQIEwJSUzEhMB8GA1UEChMY
RWxla3Ryb3RlaG5pY2tpIGZha3VsdGV0MREwDwYDVQQLFAhDQV9FVEZCTDEYMBYG
A1UEAxMPWmFzdGl0IFphc3RpdGljMSgwJgYJKoZIhvcNAQkBFhl6YXN0aXQuemFz
dGl0aWNAZ21haWwuY29tMIIBIjANBgkqhkiG9w0BAQEFAAOCAQ8AMIIBCgKCAQEA
vQI1EhPzhQ3V1NzHZIyZz/GWo8AzFREzfpFjUAvoahwVJkOkQrdumMpLdEsgiav8
7PTFswFWRq60rhn0A2w4P1pZDmtRtnuq+1yVxP0mOxnUFAafSuEoDLA6YNEpYy53
8quhFaWcchQ7WGavxN6jcp58BrztAOzK0jSX3gaZ4czzFbZziPiSZ4otJEnKYxE4
pOsfc4cg9pPf08mm43YCfmjqJdPL0LyF9m6DVOLKIBwT+6xmmLd7ZcBd4fHivFE9
+DzTB3xCWATjsTHTeOGjpxwgWyuVF7mdu/q3k7e3soKfGzo6FVC8+3JKc9XonlK5
bUGgk1BEPnnDOMHOLkYAnQIDAQABo4HEMIHBMAkGA1UdEwQCMAAwEwYDVR0lBAww
CgYIKwYBBQUHAwIwLAYJYIZIAYb4QgENBB8WHU9wZW5TU0wgR2VuZXJhdGVkIENl
cnRpZmljYXRlMB0GA1UdDgQWBBSTiPQEJVqdPt50oQ9QrSWLZuovEzAfBgNVHSME
GDAWgBT2OMcUqr/yReGJrBffOCBykKpksjAxBgNVHR8EKjAoMCagJKAihiBodHRw
Oi8vMTkyLjE2OC4yMS44OS9yb290Y3JsLnBlbTANBgkqhkiG9w0BAQUFAAOCAQEA
SMBPwfLQJVXUoIiwUoqWo/0jM6+R3lxA+SgvZFEfr5HGne0T5BYTopfruD8SEJNj
yEpgHC9O1y/cIeOym95nlta19hyRMC4FhEQhI2CYqJt6dPsR+qLVuk36ojhY6ITP
YPx+OWcc0JdJ3qOwyzZ7JB0jzMaTCdlbPKcNVjkS3zRjNDfb1Wk8XZuLRP6Nqrv+
2fx7Z67i6nMihOzI3R0FG0gevC4mj4y+Bs4kOBdfXMQlz0NCnFbWY15I/eb4g0US
NMQEXM9JGPjnJffAqj1+IYVpvlpNOFkJ0CIcWZlyzRKp0aRVRt+XphP9C4Qm/Z1E
Hm8E62ZOQgKHVexbzb8Swg==
-----END CERTIFICATE-----
