Certificate:
    Data:
        Version: 3 (0x2)
        Serial Number: 9 (0x9)
    Signature Algorithm: sha1WithRSAEncryption
        Issuer: C=BA, ST=RS, O=Elektrotehnicki fakultet, OU=CA_ETFBL, CN=CA_ETFBL/emailAddress=info@etf.unibl.org
        Validity
            Not Before: Aug 22 15:00:04 2019 GMT
            Not After : Aug 27 15:00:04 2019 GMT
        Subject: C=BA, ST=RS, O=Elektrotehnicki fakultet, OU=CA_ETFBL, CN=Milomir Maric/emailAddress=mm@gmail.com
        Subject Public Key Info:
            Public Key Algorithm: rsaEncryption
                Public-Key: (2048 bit)
                Modulus:
                    00:d6:50:f5:a3:0b:6c:a0:43:e6:ea:b6:ba:d9:25:
                    b5:39:c4:20:6c:86:26:b3:ec:33:54:54:10:56:eb:
                    45:ed:9a:2f:13:a0:9f:62:87:98:60:9f:dd:f3:b0:
                    ef:79:ae:aa:9a:4e:c8:93:eb:40:32:87:2c:6a:38:
                    06:a2:61:75:7a:16:c5:f8:3b:5a:97:22:19:b2:4a:
                    7a:8a:63:ad:9d:b2:60:31:55:ec:48:ff:de:9d:b2:
                    58:f4:a9:02:39:b6:a1:cc:64:4b:4a:21:be:4c:09:
                    56:f8:62:ea:c5:01:cc:f0:8d:0a:79:49:db:39:e4:
                    91:4d:0f:8f:cf:66:f7:9f:76:5c:1f:9d:a2:b1:e5:
                    4b:53:14:2d:9a:18:c8:9d:b4:36:e6:55:62:3a:de:
                    07:3a:49:9f:a6:de:1a:e3:93:41:b8:1d:a6:86:d2:
                    76:ae:aa:af:50:21:cb:b4:95:dc:d4:13:25:5f:a9:
                    6c:bc:32:33:28:bc:3f:1d:d6:da:b6:8b:d7:df:77:
                    e7:ce:6a:05:0f:1a:c8:8b:ce:df:bb:ca:ac:c9:e5:
                    f8:13:24:2a:ac:d3:f5:89:67:6c:80:d0:70:73:1d:
                    e9:b0:80:33:98:61:42:b5:a6:04:2f:13:15:46:98:
                    b7:e1:75:c1:59:7a:05:3f:94:e4:5b:34:93:8f:ec:
                    d0:fb
                Exponent: 65537 (0x10001)
        X509v3 extensions:
            X509v3 Basic Constraints: 
                CA:FALSE
            X509v3 Extended Key Usage: 
                TLS Web Client Authentication
            Netscape Comment: 
                OpenSSL Generated Certificate
            X509v3 Subject Key Identifier: 
                9A:B0:1A:CF:E3:74:86:17:15:6F:2A:CF:FE:79:F7:0C:8A:37:CC:1A
            X509v3 Authority Key Identifier: 
                keyid:F6:38:C7:14:AA:BF:F2:45:E1:89:AC:17:DF:38:20:72:90:AA:64:B2

            X509v3 CRL Distribution Points: 

                Full Name:
                  URI:http://192.168.21.89/rootcrl.pem

    Signature Algorithm: sha1WithRSAEncryption
         1a:0a:78:8c:72:52:f1:a7:f3:39:65:34:77:47:fd:e9:51:6f:
         f7:18:1f:4d:12:9b:69:8c:85:71:71:63:56:f0:41:4f:7e:8b:
         14:9d:85:ff:09:1b:dc:9b:da:02:a2:79:04:0c:24:21:fa:58:
         eb:46:4f:c8:62:0a:92:3e:a7:da:b5:17:77:d8:bf:ae:e4:bc:
         b2:6f:69:66:cd:66:46:fd:d6:4d:31:19:97:87:ba:2f:ad:98:
         a4:00:18:bb:1d:44:cc:31:a7:68:55:9b:34:b1:66:91:bb:6b:
         45:d6:27:dd:69:a2:d2:79:cb:40:14:26:38:3c:b2:5c:27:64:
         45:4d:45:d4:5d:47:c1:ed:d5:6a:ab:86:37:43:32:aa:fb:5c:
         20:43:3b:2f:19:c5:64:b4:8f:f0:da:f5:ce:30:dd:c8:a9:21:
         2e:9f:f7:5d:d0:dd:c8:55:a2:07:82:4f:e0:45:f6:50:49:25:
         06:3d:73:c5:d9:64:91:9f:95:88:23:da:d1:e2:32:b0:00:84:
         c9:38:d2:c0:39:01:9a:8a:d1:c0:2c:c7:5f:52:7a:f0:46:08:
         2f:e8:ff:15:68:51:04:a2:55:c5:dd:96:08:8d:02:16:66:b6:
         3a:75:2e:76:cd:f9:84:4e:3d:9e:9d:8e:a2:c0:9a:0b:fa:0b:
         bf:61:06:1e
-----BEGIN CERTIFICATE-----
MIIETTCCAzWgAwIBAgIBCTANBgkqhkiG9w0BAQUFADCBhjELMAkGA1UEBhMCQkEx
CzAJBgNVBAgTAlJTMSEwHwYDVQQKExhFbGVrdHJvdGVobmlja2kgZmFrdWx0ZXQx
ETAPBgNVBAsUCENBX0VURkJMMREwDwYDVQQDFAhDQV9FVEZCTDEhMB8GCSqGSIb3
DQEJARYSaW5mb0BldGYudW5pYmwub3JnMB4XDTE5MDgyMjE1MDAwNFoXDTE5MDgy
NzE1MDAwNFowgYUxCzAJBgNVBAYTAkJBMQswCQYDVQQIEwJSUzEhMB8GA1UEChMY
RWxla3Ryb3RlaG5pY2tpIGZha3VsdGV0MREwDwYDVQQLFAhDQV9FVEZCTDEWMBQG
A1UEAxMNTWlsb21pciBNYXJpYzEbMBkGCSqGSIb3DQEJARYMbW1AZ21haWwuY29t
MIIBIjANBgkqhkiG9w0BAQEFAAOCAQ8AMIIBCgKCAQEA1lD1owtsoEPm6ra62SW1
OcQgbIYms+wzVFQQVutF7ZovE6CfYoeYYJ/d87Dvea6qmk7Ik+tAMocsajgGomF1
ehbF+DtalyIZskp6imOtnbJgMVXsSP/enbJY9KkCObahzGRLSiG+TAlW+GLqxQHM
8I0KeUnbOeSRTQ+Pz2b3n3ZcH52iseVLUxQtmhjInbQ25lViOt4HOkmfpt4a45NB
uB2mhtJ2rqqvUCHLtJXc1BMlX6lsvDIzKLw/HdbatovX33fnzmoFDxrIi87fu8qs
yeX4EyQqrNP1iWdsgNBwcx3psIAzmGFCtaYELxMVRpi34XXBWXoFP5TkWzSTj+zQ
+wIDAQABo4HEMIHBMAkGA1UdEwQCMAAwEwYDVR0lBAwwCgYIKwYBBQUHAwIwLAYJ
YIZIAYb4QgENBB8WHU9wZW5TU0wgR2VuZXJhdGVkIENlcnRpZmljYXRlMB0GA1Ud
DgQWBBSasBrP43SGFxVvKs/+efcMijfMGjAfBgNVHSMEGDAWgBT2OMcUqr/yReGJ
rBffOCBykKpksjAxBgNVHR8EKjAoMCagJKAihiBodHRwOi8vMTkyLjE2OC4yMS44
OS9yb290Y3JsLnBlbTANBgkqhkiG9w0BAQUFAAOCAQEAGgp4jHJS8afzOWU0d0f9
6VFv9xgfTRKbaYyFcXFjVvBBT36LFJ2F/wkb3JvaAqJ5BAwkIfpY60ZPyGIKkj6n
2rUXd9i/ruS8sm9pZs1mRv3WTTEZl4e6L62YpAAYux1EzDGnaFWbNLFmkbtrRdYn
3Wmi0nnLQBQmODyyXCdkRU1F1F1Hwe3VaquGN0MyqvtcIEM7LxnFZLSP8Nr1zjDd
yKkhLp/3XdDdyFWiB4JP4EX2UEklBj1zxdlkkZ+ViCPa0eIysACEyTjSwDkBmorR
wCzHX1J68EYIL+j/FWhRBKJVxd2WCI0CFma2OnUuds35hE49np2OosCaC/oLv2EG
Hg==
-----END CERTIFICATE-----
