Certificate:
    Data:
        Version: 3 (0x2)
        Serial Number: 10 (0xa)
    Signature Algorithm: sha1WithRSAEncryption
        Issuer: C=BA, ST=RS, O=Elektrotehnicki fakultet, OU=CA_ETFBL, CN=CA_ETFBL/emailAddress=info@etf.unibl.org
        Validity
            Not Before: Aug 22 21:07:59 2019 GMT
            Not After : Aug 27 21:07:59 2019 GMT
        Subject: C=BA, ST=RS, O=Elektrotehnicki fakultet, OU=CA_ETFBL, CN=Miki Maus/emailAddress=miki.maus@gmail.com
        Subject Public Key Info:
            Public Key Algorithm: rsaEncryption
                Public-Key: (2048 bit)
                Modulus:
                    00:d3:ae:77:d0:69:f0:98:f4:98:d0:c2:e2:60:d7:
                    8d:d8:7e:0b:89:ef:a5:2e:65:24:a6:e7:83:9d:bb:
                    14:bb:ce:99:88:8c:72:73:00:db:64:da:2b:66:73:
                    7f:20:de:16:af:b3:bf:0e:6a:37:eb:01:d3:c4:66:
                    44:5f:c5:52:5a:f6:b1:87:a1:46:13:f0:6f:84:88:
                    9f:9e:91:99:f3:14:0a:24:c5:0e:ad:1c:68:19:96:
                    de:d6:a9:56:94:9c:52:88:40:ea:34:1f:5b:4c:80:
                    dc:38:46:83:09:8e:44:3a:e2:7c:4f:21:9b:ba:90:
                    c6:ee:08:ac:cc:cf:68:8c:9d:37:3d:8b:64:9e:22:
                    12:28:96:95:25:d8:54:80:f5:30:6c:4e:01:3a:a7:
                    48:8a:3e:97:ab:27:e3:8f:3f:56:47:a1:8c:be:fc:
                    68:f5:ea:df:c7:ad:ca:99:f0:78:47:dc:fc:87:68:
                    f6:4d:c3:66:00:00:b0:e1:19:80:1d:b0:c3:d7:0e:
                    4b:ba:54:fb:ea:c3:ef:99:8e:59:c7:ce:cd:5e:49:
                    e2:2c:a5:d1:43:dd:5a:a4:d9:1e:f3:4c:37:1c:05:
                    ed:f3:46:eb:8a:c4:21:a5:66:16:41:b4:e8:b9:74:
                    ba:73:57:a9:67:e1:90:30:ee:31:9c:3c:f6:63:d1:
                    dc:b7
                Exponent: 65537 (0x10001)
        X509v3 extensions:
            X509v3 Basic Constraints: 
                CA:FALSE
            X509v3 Extended Key Usage: 
                TLS Web Client Authentication
            Netscape Comment: 
                OpenSSL Generated Certificate
            X509v3 Subject Key Identifier: 
                65:43:5A:FB:72:79:81:A2:1B:44:7E:63:FC:56:55:B9:3A:8E:6E:F9
            X509v3 Authority Key Identifier: 
                keyid:F6:38:C7:14:AA:BF:F2:45:E1:89:AC:17:DF:38:20:72:90:AA:64:B2

            X509v3 CRL Distribution Points: 

                Full Name:
                  URI:http://192.168.21.89/rootcrl.pem

    Signature Algorithm: sha1WithRSAEncryption
         cb:d8:ed:f5:37:bc:4b:c0:09:76:93:2d:55:bb:2f:7c:b7:d5:
         f3:28:65:93:bd:85:21:53:33:93:2d:f6:42:4b:bb:03:44:b6:
         43:27:e8:f8:a5:7c:34:ac:fe:29:38:6d:9d:f6:bb:e5:75:d9:
         96:91:5a:99:d3:1f:06:19:84:72:96:57:1a:fb:ad:9b:1b:1a:
         ff:ea:4e:e0:5a:56:8a:b6:21:cb:1e:1c:f3:90:32:fa:34:eb:
         d3:9c:f3:a5:09:18:ff:a3:57:4c:41:ec:5e:53:9f:f5:a5:e7:
         d8:b0:eb:9e:6b:15:72:38:4e:e5:cf:d7:1c:01:88:a4:e0:fc:
         f3:33:fa:33:3e:3d:0c:c2:6a:10:3d:42:5e:d9:8e:69:0c:52:
         bd:6e:0f:89:00:4e:22:21:06:43:52:38:27:0c:bd:45:c6:c2:
         a4:b2:10:e1:0e:fe:03:73:0b:68:c9:12:8c:5d:52:26:fa:43:
         89:c8:d2:27:ff:a5:c1:01:0c:76:5e:a4:01:d3:b3:7a:5c:af:
         7a:56:1f:ab:d7:3c:b3:88:8f:a8:41:07:45:51:29:79:63:dc:
         1c:d5:9c:bd:e7:c8:64:05:00:1f:1f:17:8e:de:6b:8a:7c:6e:
         0b:ab:bb:07:2c:18:8a:12:45:f0:a0:81:5d:1e:96:ed:ba:dd:
         9c:ff:8f:36
-----BEGIN CERTIFICATE-----
MIIEUDCCAzigAwIBAgIBCjANBgkqhkiG9w0BAQUFADCBhjELMAkGA1UEBhMCQkEx
CzAJBgNVBAgTAlJTMSEwHwYDVQQKExhFbGVrdHJvdGVobmlja2kgZmFrdWx0ZXQx
ETAPBgNVBAsUCENBX0VURkJMMREwDwYDVQQDFAhDQV9FVEZCTDEhMB8GCSqGSIb3
DQEJARYSaW5mb0BldGYudW5pYmwub3JnMB4XDTE5MDgyMjIxMDc1OVoXDTE5MDgy
NzIxMDc1OVowgYgxCzAJBgNVBAYTAkJBMQswCQYDVQQIEwJSUzEhMB8GA1UEChMY
RWxla3Ryb3RlaG5pY2tpIGZha3VsdGV0MREwDwYDVQQLFAhDQV9FVEZCTDESMBAG
A1UEAxMJTWlraSBNYXVzMSIwIAYJKoZIhvcNAQkBFhNtaWtpLm1hdXNAZ21haWwu
Y29tMIIBIjANBgkqhkiG9w0BAQEFAAOCAQ8AMIIBCgKCAQEA06530GnwmPSY0MLi
YNeN2H4Lie+lLmUkpueDnbsUu86ZiIxycwDbZNorZnN/IN4Wr7O/Dmo36wHTxGZE
X8VSWvaxh6FGE/BvhIifnpGZ8xQKJMUOrRxoGZbe1qlWlJxSiEDqNB9bTIDcOEaD
CY5EOuJ8TyGbupDG7giszM9ojJ03PYtkniISKJaVJdhUgPUwbE4BOqdIij6Xqyfj
jz9WR6GMvvxo9erfx63KmfB4R9z8h2j2TcNmAACw4RmAHbDD1w5LulT76sPvmY5Z
x87NXkniLKXRQ91apNke80w3HAXt80brisQhpWYWQbTouXS6c1epZ+GQMO4xnDz2
Y9HctwIDAQABo4HEMIHBMAkGA1UdEwQCMAAwEwYDVR0lBAwwCgYIKwYBBQUHAwIw
LAYJYIZIAYb4QgENBB8WHU9wZW5TU0wgR2VuZXJhdGVkIENlcnRpZmljYXRlMB0G
A1UdDgQWBBRlQ1r7cnmBohtEfmP8VlW5Oo5u+TAfBgNVHSMEGDAWgBT2OMcUqr/y
ReGJrBffOCBykKpksjAxBgNVHR8EKjAoMCagJKAihiBodHRwOi8vMTkyLjE2OC4y
MS44OS9yb290Y3JsLnBlbTANBgkqhkiG9w0BAQUFAAOCAQEAy9jt9Te8S8AJdpMt
VbsvfLfV8yhlk72FIVMzky32Qku7A0S2Qyfo+KV8NKz+KThtnfa75XXZlpFamdMf
BhmEcpZXGvutmxsa/+pO4FpWirYhyx4c85Ay+jTr05zzpQkY/6NXTEHsXlOf9aXn
2LDrnmsVcjhO5c/XHAGIpOD88zP6Mz49DMJqED1CXtmOaQxSvW4PiQBOIiEGQ1I4
Jwy9RcbCpLIQ4Q7+A3MLaMkSjF1SJvpDicjSJ/+lwQEMdl6kAdOzelyvelYfq9c8
s4iPqEEHRVEpeWPcHNWcvefIZAUAHx8Xjt5rinxuC6u7BywYihJF8KCBXR6W7brd
nP+PNg==
-----END CERTIFICATE-----
