Certificate:
    Data:
        Version: 3 (0x2)
        Serial Number: 11 (0xb)
    Signature Algorithm: sha1WithRSAEncryption
        Issuer: C=BA, ST=RS, O=Elektrotehnicki fakultet, OU=CA_ETFBL, CN=CA_ETFBL/emailAddress=info@etf.unibl.org
        Validity
            Not Before: Aug 23 13:30:34 2019 GMT
            Not After : Aug 28 13:30:34 2019 GMT
        Subject: C=BA, ST=RS, O=Elektrotehnicki fakultet, OU=CA_ETFBL, CN=Milan Medic/emailAddress=medic97@gmail.com
        Subject Public Key Info:
            Public Key Algorithm: rsaEncryption
                Public-Key: (2048 bit)
                Modulus:
                    00:ab:dd:39:7e:4e:f1:1f:3d:1c:e2:bd:d5:d7:2a:
                    5a:5e:74:e3:36:05:77:ca:2f:bf:e8:11:af:5e:2f:
                    e6:b8:d6:85:61:1d:d7:4a:fe:80:57:65:20:79:50:
                    77:7d:14:7d:26:9b:c8:38:6f:32:3d:7d:25:09:a3:
                    a1:32:09:42:1f:95:41:d1:59:14:f2:b7:96:1e:b4:
                    a7:1b:97:c9:f7:e0:33:33:49:83:3b:37:f0:a0:d1:
                    cf:cc:b6:19:e9:56:e2:d1:61:7d:81:a2:d8:49:f7:
                    13:ab:54:4a:de:67:e3:13:ce:9e:f7:57:ab:3f:81:
                    3a:d5:74:c3:d9:2b:e9:fa:11:16:29:91:43:cc:23:
                    6e:1d:30:27:05:26:5a:aa:b5:2d:ea:86:12:4d:1b:
                    3a:43:f2:35:46:89:cc:22:b6:59:7d:bd:1e:06:38:
                    ef:e5:76:5f:b6:e0:aa:f6:81:9b:91:a5:37:45:44:
                    6a:b2:da:44:06:d5:4a:6a:0d:dc:d2:11:b9:49:a8:
                    11:89:bd:06:f1:9d:2b:41:67:4f:87:0c:2f:c3:d3:
                    3a:ed:1a:6f:8f:dc:a4:62:3a:5e:09:ac:29:89:1e:
                    30:41:2e:77:09:e8:3e:19:1b:fd:86:d3:0a:d5:a4:
                    d0:d3:85:9e:9c:0d:31:ac:35:90:8a:a4:4a:73:50:
                    f2:fd
                Exponent: 65537 (0x10001)
        X509v3 extensions:
            X509v3 Basic Constraints: 
                CA:FALSE
            X509v3 Extended Key Usage: 
                TLS Web Client Authentication
            Netscape Comment: 
                OpenSSL Generated Certificate
            X509v3 Subject Key Identifier: 
                68:EC:9E:75:F7:57:8F:25:33:78:62:49:57:64:3F:A9:DE:19:B2:E5
            X509v3 Authority Key Identifier: 
                keyid:F6:38:C7:14:AA:BF:F2:45:E1:89:AC:17:DF:38:20:72:90:AA:64:B2

            X509v3 CRL Distribution Points: 

                Full Name:
                  URI:http://192.168.21.89/rootcrl.pem

    Signature Algorithm: sha1WithRSAEncryption
         5e:dc:c1:50:04:8f:16:1a:ff:a9:01:e7:f1:2d:d4:cb:39:22:
         b2:fa:5a:0c:8f:68:8a:a7:4a:28:75:6c:ea:d0:31:56:32:ac:
         91:e5:62:c5:72:77:cf:76:d6:4d:a1:72:d8:62:2c:1b:98:00:
         9a:0b:59:ad:61:64:3b:b9:51:66:21:4d:17:19:7c:1a:67:9c:
         fc:f7:59:6d:6e:a9:fe:fd:a4:66:91:04:ff:f5:63:e2:ab:49:
         c6:5b:ec:2a:d7:8b:6f:37:01:f1:24:25:d9:2f:bb:e2:c9:8d:
         6d:e6:2b:5d:17:4b:0e:93:10:63:71:74:16:4f:dc:25:99:85:
         ad:3f:06:e3:92:0e:a8:94:98:8b:87:a5:40:18:11:a3:4a:7e:
         5a:32:cc:31:6b:93:a7:ad:88:06:e1:42:32:ad:62:c9:2f:53:
         65:5b:43:6e:dd:52:b8:b6:3b:21:72:c5:68:d2:4a:9b:3f:6e:
         54:64:ba:e4:a4:2d:eb:1f:6b:ae:5c:3a:8c:06:f5:a8:81:ca:
         63:2f:b1:54:b1:98:76:2b:95:1e:cc:c8:28:28:3e:ad:cd:b7:
         77:a3:38:d2:04:00:95:e6:c4:25:77:e4:f4:2d:1f:c9:6e:67:
         2a:06:53:3d:6e:60:e7:be:16:8e:8a:bc:2d:8c:96:66:7d:05:
         57:87:61:e1
-----BEGIN CERTIFICATE-----
MIIEUDCCAzigAwIBAgIBCzANBgkqhkiG9w0BAQUFADCBhjELMAkGA1UEBhMCQkEx
CzAJBgNVBAgTAlJTMSEwHwYDVQQKExhFbGVrdHJvdGVobmlja2kgZmFrdWx0ZXQx
ETAPBgNVBAsUCENBX0VURkJMMREwDwYDVQQDFAhDQV9FVEZCTDEhMB8GCSqGSIb3
DQEJARYSaW5mb0BldGYudW5pYmwub3JnMB4XDTE5MDgyMzEzMzAzNFoXDTE5MDgy
ODEzMzAzNFowgYgxCzAJBgNVBAYTAkJBMQswCQYDVQQIEwJSUzEhMB8GA1UEChMY
RWxla3Ryb3RlaG5pY2tpIGZha3VsdGV0MREwDwYDVQQLFAhDQV9FVEZCTDEUMBIG
A1UEAxMLTWlsYW4gTWVkaWMxIDAeBgkqhkiG9w0BCQEWEW1lZGljOTdAZ21haWwu
Y29tMIIBIjANBgkqhkiG9w0BAQEFAAOCAQ8AMIIBCgKCAQEAq905fk7xHz0c4r3V
1ypaXnTjNgV3yi+/6BGvXi/muNaFYR3XSv6AV2UgeVB3fRR9JpvIOG8yPX0lCaOh
MglCH5VB0VkU8reWHrSnG5fJ9+AzM0mDOzfwoNHPzLYZ6Vbi0WF9gaLYSfcTq1RK
3mfjE86e91erP4E61XTD2Svp+hEWKZFDzCNuHTAnBSZaqrUt6oYSTRs6Q/I1RonM
IrZZfb0eBjjv5XZftuCq9oGbkaU3RURqstpEBtVKag3c0hG5SagRib0G8Z0rQWdP
hwwvw9M67Rpvj9ykYjpeCawpiR4wQS53Ceg+GRv9htMK1aTQ04WenA0xrDWQiqRK
c1Dy/QIDAQABo4HEMIHBMAkGA1UdEwQCMAAwEwYDVR0lBAwwCgYIKwYBBQUHAwIw
LAYJYIZIAYb4QgENBB8WHU9wZW5TU0wgR2VuZXJhdGVkIENlcnRpZmljYXRlMB0G
A1UdDgQWBBRo7J5191ePJTN4YklXZD+p3hmy5TAfBgNVHSMEGDAWgBT2OMcUqr/y
ReGJrBffOCBykKpksjAxBgNVHR8EKjAoMCagJKAihiBodHRwOi8vMTkyLjE2OC4y
MS44OS9yb290Y3JsLnBlbTANBgkqhkiG9w0BAQUFAAOCAQEAXtzBUASPFhr/qQHn
8S3UyzkisvpaDI9oiqdKKHVs6tAxVjKskeVixXJ3z3bWTaFy2GIsG5gAmgtZrWFk
O7lRZiFNFxl8Gmec/PdZbW6p/v2kZpEE//Vj4qtJxlvsKteLbzcB8SQl2S+74smN
beYrXRdLDpMQY3F0Fk/cJZmFrT8G45IOqJSYi4elQBgRo0p+WjLMMWuTp62IBuFC
Mq1iyS9TZVtDbt1SuLY7IXLFaNJKmz9uVGS65KQt6x9rrlw6jAb1qIHKYy+xVLGY
diuVHszIKCg+rc23d6M40gQAlebEJXfk9C0fyW5nKgZTPW5g574Wjoq8LYyWZn0F
V4dh4Q==
-----END CERTIFICATE-----
