Certificate:
    Data:
        Version: 3 (0x2)
        Serial Number: 12 (0xc)
    Signature Algorithm: sha1WithRSAEncryption
        Issuer: C=BA, ST=RS, O=Elektrotehnicki fakultet, OU=CA_ETFBL, CN=CA_ETFBL/emailAddress=info@etf.unibl.org
        Validity
            Not Before: Aug 25 21:28:04 2019 GMT
            Not After : Aug 30 21:28:04 2019 GMT
        Subject: C=BA, ST=RS, O=Elektrotehnicki fakultet, OU=CA_ETFBL, CN=Milan Medic/emailAddress=medicm97@gmail.com
        Subject Public Key Info:
            Public Key Algorithm: rsaEncryption
                Public-Key: (2048 bit)
                Modulus:
                    00:c4:bf:c6:32:f5:dc:1a:57:16:05:32:d0:64:0f:
                    fc:a3:54:1c:80:3a:c7:bb:1b:d6:1e:34:dc:eb:51:
                    8d:a1:f0:85:6f:f3:27:d6:fe:89:95:ef:40:8e:f9:
                    e3:96:ec:57:d5:35:c9:e1:c3:9b:13:35:53:6d:a6:
                    9d:a7:94:d1:a9:3f:e7:83:a6:82:c1:44:ed:d8:3a:
                    e5:f1:5e:0e:48:33:19:12:0e:32:7e:77:f2:1b:08:
                    81:8c:2d:24:df:63:3a:07:ef:aa:89:31:38:06:c7:
                    63:9c:18:6b:2a:38:f8:eb:da:3c:35:51:7f:16:22:
                    cc:24:a5:8a:c4:4f:d6:0b:a4:58:e8:90:36:18:12:
                    2b:aa:b8:42:81:27:49:bc:52:f2:71:e7:9d:ae:cd:
                    33:d3:82:83:1b:f1:16:43:21:65:6e:20:6e:f9:0e:
                    d0:00:5e:bf:5d:3a:46:bb:10:ab:71:31:d1:dd:74:
                    6b:8b:44:0d:be:0a:e4:c9:00:96:59:b8:fb:4d:0f:
                    f4:09:e0:e6:bf:9b:fc:ad:0a:cb:6d:3f:8d:a5:5d:
                    bf:50:02:f8:cd:af:45:77:53:98:e1:b0:9e:11:3c:
                    ac:b7:1b:7b:64:9d:ab:ad:91:83:5c:a1:a1:27:77:
                    e0:68:ff:12:a1:7c:15:2d:55:1b:7e:04:2e:fc:98:
                    03:95
                Exponent: 65537 (0x10001)
        X509v3 extensions:
            X509v3 Basic Constraints: 
                CA:FALSE
            X509v3 Extended Key Usage: 
                TLS Web Client Authentication
            Netscape Comment: 
                OpenSSL Generated Certificate
            X509v3 Subject Key Identifier: 
                80:44:41:40:EE:B9:A5:46:DB:F8:75:CA:31:9A:70:A4:F3:23:B5:67
            X509v3 Authority Key Identifier: 
                keyid:F6:38:C7:14:AA:BF:F2:45:E1:89:AC:17:DF:38:20:72:90:AA:64:B2

            X509v3 CRL Distribution Points: 

                Full Name:
                  URI:http://192.168.21.89/rootcrl.pem

    Signature Algorithm: sha1WithRSAEncryption
         3e:6c:f4:40:c7:e5:8c:47:71:9d:97:99:e8:a5:79:5d:1b:2a:
         50:1b:83:08:83:b4:dd:b0:cf:0b:c3:82:25:08:5a:2c:19:f8:
         43:0f:7c:b8:c0:39:26:7d:b9:58:d3:dd:e7:c5:7d:da:f0:0c:
         aa:c3:15:11:4f:c0:bc:31:44:bc:3d:44:31:b7:80:4a:50:f0:
         3b:10:6b:2f:e5:ec:de:28:87:c8:90:81:94:af:bc:d6:05:d0:
         be:36:58:05:57:d1:47:6a:d3:61:31:2a:12:83:fa:ba:49:27:
         54:6a:d6:2a:a0:89:2a:00:ed:50:60:a3:b6:0c:d0:20:3a:ad:
         dc:d3:f0:6e:67:6a:fa:5a:cb:c7:d5:f7:e1:e5:db:1c:f3:ba:
         26:b6:76:2c:2c:fe:81:b1:3e:c9:d7:57:da:5d:7e:65:b1:20:
         15:b4:23:dc:78:4b:21:19:e6:ef:50:93:34:cf:1f:16:fe:2c:
         71:19:a6:27:68:e4:e5:89:0e:8f:a0:cf:3b:d2:94:81:e1:07:
         a2:72:d5:be:35:bb:ac:19:0b:c8:39:12:40:5a:ad:dd:0d:81:
         6e:89:3a:0c:42:df:90:ae:90:46:08:01:03:9a:1c:8d:c7:76:
         49:64:97:27:86:d0:bb:b0:c3:57:53:2b:1b:30:da:be:2d:aa:
         ff:1d:27:20
-----BEGIN CERTIFICATE-----
MIIEUTCCAzmgAwIBAgIBDDANBgkqhkiG9w0BAQUFADCBhjELMAkGA1UEBhMCQkEx
CzAJBgNVBAgTAlJTMSEwHwYDVQQKExhFbGVrdHJvdGVobmlja2kgZmFrdWx0ZXQx
ETAPBgNVBAsUCENBX0VURkJMMREwDwYDVQQDFAhDQV9FVEZCTDEhMB8GCSqGSIb3
DQEJARYSaW5mb0BldGYudW5pYmwub3JnMB4XDTE5MDgyNTIxMjgwNFoXDTE5MDgz
MDIxMjgwNFowgYkxCzAJBgNVBAYTAkJBMQswCQYDVQQIEwJSUzEhMB8GA1UEChMY
RWxla3Ryb3RlaG5pY2tpIGZha3VsdGV0MREwDwYDVQQLFAhDQV9FVEZCTDEUMBIG
A1UEAxMLTWlsYW4gTWVkaWMxITAfBgkqhkiG9w0BCQEWEm1lZGljbTk3QGdtYWls
LmNvbTCCASIwDQYJKoZIhvcNAQEBBQADggEPADCCAQoCggEBAMS/xjL13BpXFgUy
0GQP/KNUHIA6x7sb1h403OtRjaHwhW/zJ9b+iZXvQI7545bsV9U1yeHDmxM1U22m
naeU0ak/54OmgsFE7dg65fFeDkgzGRIOMn538hsIgYwtJN9jOgfvqokxOAbHY5wY
ayo4+OvaPDVRfxYizCSlisRP1gukWOiQNhgSK6q4QoEnSbxS8nHnna7NM9OCgxvx
FkMhZW4gbvkO0ABev106RrsQq3Ex0d10a4tEDb4K5MkAllm4+00P9Ang5r+b/K0K
y20/jaVdv1AC+M2vRXdTmOGwnhE8rLcbe2Sdq62Rg1yhoSd34Gj/EqF8FS1VG34E
LvyYA5UCAwEAAaOBxDCBwTAJBgNVHRMEAjAAMBMGA1UdJQQMMAoGCCsGAQUFBwMC
MCwGCWCGSAGG+EIBDQQfFh1PcGVuU1NMIEdlbmVyYXRlZCBDZXJ0aWZpY2F0ZTAd
BgNVHQ4EFgQUgERBQO65pUbb+HXKMZpwpPMjtWcwHwYDVR0jBBgwFoAU9jjHFKq/
8kXhiawX3zggcpCqZLIwMQYDVR0fBCowKDAmoCSgIoYgaHR0cDovLzE5Mi4xNjgu
MjEuODkvcm9vdGNybC5wZW0wDQYJKoZIhvcNAQEFBQADggEBAD5s9EDH5YxHcZ2X
meileV0bKlAbgwiDtN2wzwvDgiUIWiwZ+EMPfLjAOSZ9uVjT3efFfdrwDKrDFRFP
wLwxRLw9RDG3gEpQ8DsQay/l7N4oh8iQgZSvvNYF0L42WAVX0Udq02ExKhKD+rpJ
J1Rq1iqgiSoA7VBgo7YM0CA6rdzT8G5navpay8fV9+Hl2xzzuia2diws/oGxPsnX
V9pdfmWxIBW0I9x4SyEZ5u9QkzTPHxb+LHEZpido5OWJDo+gzzvSlIHhB6Jy1b41
u6wZC8g5EkBard0NgW6JOgxC35CukEYIAQOaHI3HdklklyeG0Luww1dTKxsw2r4t
qv8dJyA=
-----END CERTIFICATE-----
