Certificate:
    Data:
        Version: 3 (0x2)
        Serial Number: 13 (0xd)
    Signature Algorithm: sha1WithRSAEncryption
        Issuer: C=BA, ST=RS, O=Elektrotehnicki fakultet, OU=CA_ETFBL, CN=CA_ETFBL/emailAddress=info@etf.unibl.org
        Validity
            Not Before: Aug 26 13:50:17 2019 GMT
            Not After : Aug 31 13:50:17 2019 GMT
        Subject: C=BA, ST=RS, O=Elektrotehnicki fakultet, OU=CA_ETFBL, CN=Kristijan Stepanov/emailAddress=kristijan.stepanov95@gmail.com
        Subject Public Key Info:
            Public Key Algorithm: rsaEncryption
                Public-Key: (2048 bit)
                Modulus:
                    00:b5:46:d2:a1:5b:bd:fb:a6:aa:ac:8e:be:ad:4d:
                    60:ad:db:4b:0e:e2:4e:69:4e:2b:3b:d5:74:e7:ed:
                    0c:0a:ea:26:7e:c9:bf:06:f1:40:a4:0e:53:3b:34:
                    52:0b:89:5f:aa:42:d9:eb:82:3f:b3:fc:26:b5:c8:
                    3d:25:7e:d5:62:0f:14:d8:e5:9b:63:e3:71:d3:ef:
                    5e:39:73:be:d6:50:37:ea:21:a3:a2:c8:5a:d7:cf:
                    fd:7e:17:aa:5f:0f:9b:5e:32:31:6a:54:82:1f:ff:
                    33:e3:9d:38:a5:d0:c8:6c:56:0f:38:9e:89:e2:33:
                    19:4d:5c:f2:ac:b0:5f:04:a3:06:36:8e:e4:9c:0d:
                    17:71:ad:a9:ac:de:6a:9a:09:54:88:3f:25:2a:7b:
                    51:00:35:60:ce:34:44:1e:d9:9d:4a:c7:22:e4:d2:
                    d0:db:86:6e:39:77:d5:3a:bd:63:60:77:6d:e8:e0:
                    7b:ea:af:15:51:89:24:b5:8b:38:74:ff:b5:51:24:
                    e7:dc:17:e5:79:07:7b:eb:03:86:4f:60:6c:59:38:
                    dd:d6:5d:22:a6:71:a6:19:c2:10:8d:08:af:fe:7e:
                    71:cb:e1:f2:b2:a7:c9:d9:4d:6c:50:03:ea:13:1f:
                    0f:2b:b9:77:56:d6:ea:54:82:65:d4:66:6b:b2:5d:
                    87:a1
                Exponent: 65537 (0x10001)
        X509v3 extensions:
            X509v3 Basic Constraints: 
                CA:FALSE
            X509v3 Extended Key Usage: 
                TLS Web Client Authentication
            Netscape Comment: 
                OpenSSL Generated Certificate
            X509v3 Subject Key Identifier: 
                31:14:3F:7D:E3:11:9A:02:0C:05:7D:AD:62:B5:29:E9:2C:F7:C1:FB
            X509v3 Authority Key Identifier: 
                keyid:F6:38:C7:14:AA:BF:F2:45:E1:89:AC:17:DF:38:20:72:90:AA:64:B2

            X509v3 CRL Distribution Points: 

                Full Name:
                  URI:http://192.168.21.89/rootcrl.pem

    Signature Algorithm: sha1WithRSAEncryption
         67:ea:94:d9:ff:95:2b:1f:c0:3f:85:d5:6b:54:f6:be:b9:74:
         e9:09:27:eb:c7:36:b5:87:b4:71:3d:30:e5:c0:de:48:8e:8a:
         58:9c:72:b3:eb:ab:bc:91:b6:96:6e:62:0d:0d:f7:1c:8e:db:
         a9:2f:2a:30:6c:a4:ce:13:46:a4:b7:46:f8:71:7c:d0:a1:53:
         44:7e:82:2b:6a:5d:b1:e5:78:e6:04:2f:7d:fc:19:47:8c:a7:
         02:dd:71:2e:38:62:00:57:cd:c6:4a:be:5a:ce:21:30:dc:8d:
         3e:b8:66:24:a9:09:56:89:b1:25:0e:4c:41:1a:11:d3:b4:5b:
         a7:c7:9d:e3:3a:36:20:0d:72:a1:70:8d:c9:f5:d0:c9:1f:e4:
         ed:3f:81:30:f0:97:a7:e7:b5:5f:b1:a2:f3:bc:d6:6b:79:22:
         0d:46:8a:a3:77:4b:2e:6b:9b:de:1a:c5:7f:16:b2:28:95:eb:
         86:f8:3e:b1:89:83:35:13:94:c3:fd:20:7e:be:25:2b:11:38:
         d8:9f:78:03:e5:c2:cb:02:01:76:45:fd:8c:37:08:4c:cb:4e:
         98:bf:c7:6e:b4:30:e4:0d:b3:89:b8:cd:aa:a9:93:0f:da:65:
         f6:46:13:0d:4d:c7:ba:ef:09:23:34:86:a4:76:ab:1e:d3:13:
         37:ba:69:55
-----BEGIN CERTIFICATE-----
MIIEZDCCA0ygAwIBAgIBDTANBgkqhkiG9w0BAQUFADCBhjELMAkGA1UEBhMCQkEx
CzAJBgNVBAgTAlJTMSEwHwYDVQQKExhFbGVrdHJvdGVobmlja2kgZmFrdWx0ZXQx
ETAPBgNVBAsUCENBX0VURkJMMREwDwYDVQQDFAhDQV9FVEZCTDEhMB8GCSqGSIb3
DQEJARYSaW5mb0BldGYudW5pYmwub3JnMB4XDTE5MDgyNjEzNTAxN1oXDTE5MDgz
MTEzNTAxN1owgZwxCzAJBgNVBAYTAkJBMQswCQYDVQQIEwJSUzEhMB8GA1UEChMY
RWxla3Ryb3RlaG5pY2tpIGZha3VsdGV0MREwDwYDVQQLFAhDQV9FVEZCTDEbMBkG
A1UEAxMSS3Jpc3RpamFuIFN0ZXBhbm92MS0wKwYJKoZIhvcNAQkBFh5rcmlzdGlq
YW4uc3RlcGFub3Y5NUBnbWFpbC5jb20wggEiMA0GCSqGSIb3DQEBAQUAA4IBDwAw
ggEKAoIBAQC1RtKhW737pqqsjr6tTWCt20sO4k5pTis71XTn7QwK6iZ+yb8G8UCk
DlM7NFILiV+qQtnrgj+z/Ca1yD0lftViDxTY5Ztj43HT7145c77WUDfqIaOiyFrX
z/1+F6pfD5teMjFqVIIf/zPjnTil0MhsVg84noniMxlNXPKssF8EowY2juScDRdx
rams3mqaCVSIPyUqe1EANWDONEQe2Z1KxyLk0tDbhm45d9U6vWNgd23o4HvqrxVR
iSS1izh0/7VRJOfcF+V5B3vrA4ZPYGxZON3WXSKmcaYZwhCNCK/+fnHL4fKyp8nZ
TWxQA+oTHw8ruXdW1upUgmXUZmuyXYehAgMBAAGjgcQwgcEwCQYDVR0TBAIwADAT
BgNVHSUEDDAKBggrBgEFBQcDAjAsBglghkgBhvhCAQ0EHxYdT3BlblNTTCBHZW5l
cmF0ZWQgQ2VydGlmaWNhdGUwHQYDVR0OBBYEFDEUP33jEZoCDAV9rWK1Keks98H7
MB8GA1UdIwQYMBaAFPY4xxSqv/JF4YmsF984IHKQqmSyMDEGA1UdHwQqMCgwJqAk
oCKGIGh0dHA6Ly8xOTIuMTY4LjIxLjg5L3Jvb3RjcmwucGVtMA0GCSqGSIb3DQEB
BQUAA4IBAQBn6pTZ/5UrH8A/hdVrVPa+uXTpCSfrxza1h7RxPTDlwN5IjopYnHKz
66u8kbaWbmINDfccjtupLyowbKTOE0akt0b4cXzQoVNEfoIral2x5XjmBC99/BlH
jKcC3XEuOGIAV83GSr5aziEw3I0+uGYkqQlWibElDkxBGhHTtFunx53jOjYgDXKh
cI3J9dDJH+TtP4Ew8Jen57VfsaLzvNZreSINRoqjd0sua5veGsV/FrIoleuG+D6x
iYM1E5TD/SB+viUrETjYn3gD5cLLAgF2Rf2MNwhMy06Yv8dutDDkDbOJuM2qqZMP
2mX2RhMNTce67wkjNIakdqse0xM3umlV
-----END CERTIFICATE-----
