Certificate:
    Data:
        Version: 3 (0x2)
        Serial Number: 14 (0xe)
    Signature Algorithm: sha1WithRSAEncryption
        Issuer: C=BA, ST=RS, O=Elektrotehnicki fakultet, OU=CA_ETFBL, CN=CA_ETFBL/emailAddress=info@etf.unibl.org
        Validity
            Not Before: Aug 26 20:47:19 2019 GMT
            Not After : Aug 31 20:47:19 2019 GMT
        Subject: C=BA, ST=RS, O=Elektrotehnicki fakultet, OU=CA_ETFBL, CN=Marko Maric/emailAddress=marko.maric97@gmail.com
        Subject Public Key Info:
            Public Key Algorithm: rsaEncryption
                Public-Key: (2048 bit)
                Modulus:
                    00:c1:3e:0a:5c:0e:e3:90:c6:00:a3:85:ec:89:a2:
                    b3:12:fe:dd:5c:97:ad:7e:ff:ee:25:4e:f7:69:2a:
                    96:1f:9b:d9:18:eb:42:ff:f4:45:aa:4c:d1:74:fb:
                    52:28:90:78:2a:68:79:59:52:aa:8c:29:86:05:4c:
                    f6:7a:d7:a3:47:86:a1:3d:7e:08:6f:0e:e8:21:1e:
                    6f:43:2a:e5:18:28:ce:57:81:7e:b2:74:c4:a5:44:
                    b7:62:21:41:f7:88:6e:ba:5e:f5:db:31:f7:cc:f6:
                    8a:b2:6b:b3:80:b2:ca:41:75:b1:08:04:ca:e5:55:
                    ed:cc:1d:39:f7:1a:f5:06:e2:69:49:4a:6e:64:5d:
                    72:07:7d:ae:c8:fb:62:1c:92:9b:04:c8:41:c0:4b:
                    05:3b:c5:6e:78:7a:f8:26:b0:af:fc:7f:71:70:5d:
                    7f:97:a8:c4:41:92:7f:4b:81:d1:16:db:01:e0:38:
                    01:d2:9e:8f:5b:36:7b:f2:d2:e8:c3:cf:74:7c:2a:
                    6b:e1:75:9d:99:fc:cd:84:4f:b7:10:e8:ff:d2:a0:
                    fc:f2:8f:15:7f:08:ba:a9:b2:fb:7a:db:b7:dd:d4:
                    33:38:d1:94:c3:48:e5:66:2e:7a:5a:d3:93:7e:1d:
                    3d:f0:8b:ac:d6:00:62:b5:19:0f:69:e0:46:f0:83:
                    8e:91
                Exponent: 65537 (0x10001)
        X509v3 extensions:
            X509v3 Basic Constraints: 
                CA:FALSE
            X509v3 Extended Key Usage: 
                TLS Web Client Authentication
            Netscape Comment: 
                OpenSSL Generated Certificate
            X509v3 Subject Key Identifier: 
                2D:28:DF:7D:1B:AF:3D:86:AC:32:D6:E7:79:B9:2C:90:E8:C9:7D:A4
            X509v3 Authority Key Identifier: 
                keyid:F6:38:C7:14:AA:BF:F2:45:E1:89:AC:17:DF:38:20:72:90:AA:64:B2

            X509v3 CRL Distribution Points: 

                Full Name:
                  URI:http://192.168.21.89/rootcrl.pem

    Signature Algorithm: sha1WithRSAEncryption
         95:c4:5c:eb:4e:10:e7:69:f9:32:ef:f8:69:95:ad:da:ce:a3:
         e0:da:a1:45:ea:f2:3d:4e:ba:d1:01:71:d0:54:3b:f8:91:ab:
         5c:81:e2:83:88:88:19:1b:81:41:24:e0:74:ce:c8:07:33:e4:
         83:08:b4:7c:da:41:49:c1:cb:2a:2e:ca:0d:bc:55:cc:25:4d:
         2a:56:19:0d:07:93:0e:e0:7d:ea:ed:32:d4:45:94:93:7a:4d:
         3c:ab:3c:64:96:34:d4:f4:42:be:35:90:db:b6:ed:bf:88:6e:
         fa:41:f7:40:87:4b:30:85:ab:25:54:b7:1f:2c:1d:68:9c:0f:
         91:98:c8:c4:08:e0:4d:c2:a8:ad:a6:17:53:69:25:99:ec:a1:
         b4:a1:94:8c:8f:ca:6f:73:4c:55:98:b7:83:8e:e4:c5:60:52:
         60:b7:d6:c5:da:2a:81:f5:4a:9d:f3:40:82:da:a8:df:93:79:
         3a:c7:49:8c:c5:81:1d:68:d8:b2:97:f1:d0:8a:5c:2f:37:f7:
         90:96:d8:86:e1:3e:86:b0:a2:6a:97:e8:22:42:1e:fe:73:71:
         f5:a5:da:72:85:e1:b0:bc:3f:bc:5a:ec:44:99:06:3f:4c:e5:
         18:5d:54:53:7a:47:c3:b9:00:d1:15:c6:87:8c:b7:68:7c:8d:
         60:13:28:d7
-----BEGIN CERTIFICATE-----
MIIEVjCCAz6gAwIBAgIBDjANBgkqhkiG9w0BAQUFADCBhjELMAkGA1UEBhMCQkEx
CzAJBgNVBAgTAlJTMSEwHwYDVQQKExhFbGVrdHJvdGVobmlja2kgZmFrdWx0ZXQx
ETAPBgNVBAsUCENBX0VURkJMMREwDwYDVQQDFAhDQV9FVEZCTDEhMB8GCSqGSIb3
DQEJARYSaW5mb0BldGYudW5pYmwub3JnMB4XDTE5MDgyNjIwNDcxOVoXDTE5MDgz
MTIwNDcxOVowgY4xCzAJBgNVBAYTAkJBMQswCQYDVQQIEwJSUzEhMB8GA1UEChMY
RWxla3Ryb3RlaG5pY2tpIGZha3VsdGV0MREwDwYDVQQLFAhDQV9FVEZCTDEUMBIG
A1UEAxMLTWFya28gTWFyaWMxJjAkBgkqhkiG9w0BCQEWF21hcmtvLm1hcmljOTdA
Z21haWwuY29tMIIBIjANBgkqhkiG9w0BAQEFAAOCAQ8AMIIBCgKCAQEAwT4KXA7j
kMYAo4XsiaKzEv7dXJetfv/uJU73aSqWH5vZGOtC//RFqkzRdPtSKJB4Kmh5WVKq
jCmGBUz2etejR4ahPX4Ibw7oIR5vQyrlGCjOV4F+snTEpUS3YiFB94huul712zH3
zPaKsmuzgLLKQXWxCATK5VXtzB059xr1BuJpSUpuZF1yB32uyPtiHJKbBMhBwEsF
O8VueHr4JrCv/H9xcF1/l6jEQZJ/S4HRFtsB4DgB0p6PWzZ78tLow890fCpr4XWd
mfzNhE+3EOj/0qD88o8Vfwi6qbL7etu33dQzONGUw0jlZi56WtOTfh098Ius1gBi
tRkPaeBG8IOOkQIDAQABo4HEMIHBMAkGA1UdEwQCMAAwEwYDVR0lBAwwCgYIKwYB
BQUHAwIwLAYJYIZIAYb4QgENBB8WHU9wZW5TU0wgR2VuZXJhdGVkIENlcnRpZmlj
YXRlMB0GA1UdDgQWBBQtKN99G689hqwy1ud5uSyQ6Ml9pDAfBgNVHSMEGDAWgBT2
OMcUqr/yReGJrBffOCBykKpksjAxBgNVHR8EKjAoMCagJKAihiBodHRwOi8vMTky
LjE2OC4yMS44OS9yb290Y3JsLnBlbTANBgkqhkiG9w0BAQUFAAOCAQEAlcRc604Q
52n5Mu/4aZWt2s6j4NqhReryPU660QFx0FQ7+JGrXIHig4iIGRuBQSTgdM7IBzPk
gwi0fNpBScHLKi7KDbxVzCVNKlYZDQeTDuB96u0y1EWUk3pNPKs8ZJY01PRCvjWQ
27btv4hu+kH3QIdLMIWrJVS3HywdaJwPkZjIxAjgTcKoraYXU2klmeyhtKGUjI/K
b3NMVZi3g47kxWBSYLfWxdoqgfVKnfNAgtqo35N5OsdJjMWBHWjYspfx0IpcLzf3
kJbYhuE+hrCiapfoIkIe/nNx9aXacoXhsLw/vFrsRJkGP0zlGF1UU3pHw7kA0RXG
h4y3aHyNYBMo1w==
-----END CERTIFICATE-----
