Certificate:
    Data:
        Version: 3 (0x2)
        Serial Number: 16 (0x10)
    Signature Algorithm: sha1WithRSAEncryption
        Issuer: C=BA, ST=RS, O=Elektrotehnicki fakultet, OU=CA_ETFBL, CN=CA_ETFBL/emailAddress=info@etf.unibl.org
        Validity
            Not Before: Aug 27 12:19:49 2019 GMT
            Not After : Aug 26 12:19:49 2020 GMT
        Subject: C=BA, ST=RS, O=Elektrotehnicki fakultet, OU=CA_ETFBL, CN=Milan Medic/emailAddress=milanm97@gmail.com
        Subject Public Key Info:
            Public Key Algorithm: rsaEncryption
                Public-Key: (2048 bit)
                Modulus:
                    00:a4:0a:00:78:46:6d:f0:02:03:f6:14:f5:6f:80:
                    ab:fc:2d:f7:8f:f1:f0:f8:90:3e:29:7a:34:c9:51:
                    26:be:99:ad:ee:3d:ab:7b:49:65:86:45:3e:3f:d9:
                    b0:a6:0c:c4:b0:0e:a5:50:f5:82:f0:8e:5d:b4:e0:
                    f8:0d:d9:67:25:32:20:07:10:9a:6e:61:45:df:71:
                    b0:bc:4d:5d:7a:8d:29:fe:8a:c5:c2:aa:94:02:f7:
                    8c:57:28:a9:1f:fb:17:cf:fc:de:b1:c9:ed:d0:b7:
                    cd:6e:05:99:32:2c:02:c4:bf:5e:f4:94:f4:a2:a4:
                    77:6a:c5:b1:5b:90:5e:5a:8d:69:c0:5f:0a:3d:77:
                    a9:0d:23:6b:16:b7:0d:79:ea:7a:10:d7:11:f0:1d:
                    42:2e:11:a4:b2:90:d8:cf:43:47:ce:54:c8:eb:74:
                    26:cc:ac:43:31:f0:7a:10:d9:35:38:71:3d:e8:36:
                    1a:7f:8e:e2:ed:ed:43:5e:90:6a:29:43:eb:4a:91:
                    80:0c:1c:1d:e7:b0:56:f6:00:73:95:e4:c2:9e:8e:
                    16:43:09:94:dd:30:86:4a:b4:f5:4f:a5:39:f1:77:
                    d6:09:f5:0f:77:18:e7:9b:9f:70:26:47:e1:5c:86:
                    27:e4:44:a9:40:58:d0:23:4d:3e:27:e0:0d:77:a6:
                    bf:bf
                Exponent: 65537 (0x10001)
        X509v3 extensions:
            X509v3 Basic Constraints: 
                CA:FALSE
            X509v3 Extended Key Usage: 
                TLS Web Client Authentication
            Netscape Comment: 
                OpenSSL Generated Certificate
            X509v3 Subject Key Identifier: 
                62:B2:97:D8:F1:EC:4B:48:C0:6F:10:81:ED:CC:13:20:96:DC:74:30
            X509v3 Authority Key Identifier: 
                keyid:F6:38:C7:14:AA:BF:F2:45:E1:89:AC:17:DF:38:20:72:90:AA:64:B2

            X509v3 CRL Distribution Points: 

                Full Name:
                  URI:http://192.168.21.89/rootcrl.pem

    Signature Algorithm: sha1WithRSAEncryption
         21:80:0e:76:86:6c:32:38:74:4a:66:11:bd:8c:5b:fc:13:28:
         2a:31:7b:cf:63:bb:a7:63:c4:bf:36:94:84:cb:5b:83:c0:86:
         4d:03:04:24:22:f8:cf:bf:b0:07:97:63:47:b7:40:f5:81:3a:
         6f:3a:71:fb:66:b8:a2:b2:5f:6a:54:fb:4d:7b:25:eb:00:0b:
         3e:3f:45:14:23:2a:24:ad:5f:92:d4:67:b1:8f:81:8d:b4:02:
         1f:f7:b6:ad:c5:46:d7:7f:8a:03:f5:4e:00:6a:22:30:37:4b:
         b8:74:10:a1:02:38:75:60:ea:27:eb:ff:02:8d:dd:9d:4e:d3:
         e3:d1:ab:38:7a:4e:1a:0b:2c:9a:2d:c4:1b:ad:f4:91:10:43:
         ea:03:a3:06:0e:39:11:fa:87:ef:73:3f:da:c7:f1:97:21:a8:
         1c:0d:f6:af:af:fd:1e:2b:f0:1d:4d:5e:c4:e7:41:92:23:b7:
         93:5d:5b:de:99:00:31:b8:af:53:7a:fb:1d:20:e2:41:c4:c8:
         1a:78:74:65:1b:09:59:3b:57:34:ee:f2:cb:41:4c:d7:80:e7:
         43:53:54:2d:da:05:29:7d:7f:28:51:95:c6:6a:3d:2d:25:bb:
         5a:dc:71:2c:6b:3a:00:2a:80:ad:ce:f9:49:a1:1d:01:88:05:
         5e:36:c8:18
-----BEGIN CERTIFICATE-----
MIIEUTCCAzmgAwIBAgIBEDANBgkqhkiG9w0BAQUFADCBhjELMAkGA1UEBhMCQkEx
CzAJBgNVBAgTAlJTMSEwHwYDVQQKExhFbGVrdHJvdGVobmlja2kgZmFrdWx0ZXQx
ETAPBgNVBAsUCENBX0VURkJMMREwDwYDVQQDFAhDQV9FVEZCTDEhMB8GCSqGSIb3
DQEJARYSaW5mb0BldGYudW5pYmwub3JnMB4XDTE5MDgyNzEyMTk0OVoXDTIwMDgy
NjEyMTk0OVowgYkxCzAJBgNVBAYTAkJBMQswCQYDVQQIEwJSUzEhMB8GA1UEChMY
RWxla3Ryb3RlaG5pY2tpIGZha3VsdGV0MREwDwYDVQQLFAhDQV9FVEZCTDEUMBIG
A1UEAxMLTWlsYW4gTWVkaWMxITAfBgkqhkiG9w0BCQEWEm1pbGFubTk3QGdtYWls
LmNvbTCCASIwDQYJKoZIhvcNAQEBBQADggEPADCCAQoCggEBAKQKAHhGbfACA/YU
9W+Aq/wt94/x8PiQPil6NMlRJr6Zre49q3tJZYZFPj/ZsKYMxLAOpVD1gvCOXbTg
+A3ZZyUyIAcQmm5hRd9xsLxNXXqNKf6KxcKqlAL3jFcoqR/7F8/83rHJ7dC3zW4F
mTIsAsS/XvSU9KKkd2rFsVuQXlqNacBfCj13qQ0jaxa3DXnqehDXEfAdQi4RpLKQ
2M9DR85UyOt0JsysQzHwehDZNThxPeg2Gn+O4u3tQ16QailD60qRgAwcHeewVvYA
c5Xkwp6OFkMJlN0whkq09U+lOfF31gn1D3cY55ufcCZH4VyGJ+REqUBY0CNNPifg
DXemv78CAwEAAaOBxDCBwTAJBgNVHRMEAjAAMBMGA1UdJQQMMAoGCCsGAQUFBwMC
MCwGCWCGSAGG+EIBDQQfFh1PcGVuU1NMIEdlbmVyYXRlZCBDZXJ0aWZpY2F0ZTAd
BgNVHQ4EFgQUYrKX2PHsS0jAbxCB7cwTIJbcdDAwHwYDVR0jBBgwFoAU9jjHFKq/
8kXhiawX3zggcpCqZLIwMQYDVR0fBCowKDAmoCSgIoYgaHR0cDovLzE5Mi4xNjgu
MjEuODkvcm9vdGNybC5wZW0wDQYJKoZIhvcNAQEFBQADggEBACGADnaGbDI4dEpm
Eb2MW/wTKCoxe89ju6djxL82lITLW4PAhk0DBCQi+M+/sAeXY0e3QPWBOm86cftm
uKKyX2pU+017JesACz4/RRQjKiStX5LUZ7GPgY20Ah/3tq3FRtd/igP1TgBqIjA3
S7h0EKECOHVg6ifr/wKN3Z1O0+PRqzh6ThoLLJotxBut9JEQQ+oDowYOORH6h+9z
P9rH8ZchqBwN9q+v/R4r8B1NXsTnQZIjt5NdW96ZADG4r1N6+x0g4kHEyBp4dGUb
CVk7VzTu8stBTNeA50NTVC3aBSl9fyhRlcZqPS0lu1rccSxrOgAqgK3O+UmhHQGI
BV42yBg=
-----END CERTIFICATE-----
