Certificate:
    Data:
        Version: 3 (0x2)
        Serial Number: 18 (0x12)
    Signature Algorithm: sha1WithRSAEncryption
        Issuer: C=BA, ST=RS, O=Elektrotehnicki fakultet, OU=CA_ETFBL, CN=CA_ETFBL/emailAddress=info@etf.unibl.org
        Validity
            Not Before: Aug 29 21:33:33 2019 GMT
            Not After : Aug 28 21:33:33 2020 GMT
        Subject: C=BA, ST=RS, O=Elektrotehnicki fakultet, OU=CA_ETFBL, CN=Mirko Mirkic/emailAddress=mirko.mirkic@gmail.com
        Subject Public Key Info:
            Public Key Algorithm: rsaEncryption
                Public-Key: (2048 bit)
                Modulus:
                    00:c4:1d:80:e8:2d:5c:e1:e9:dc:28:4c:8c:0d:79:
                    ca:26:e3:6d:8c:7f:63:fe:7f:08:c2:d4:08:2e:08:
                    b1:90:92:29:be:c0:6d:72:30:6f:47:4c:ea:08:b7:
                    a6:fc:d4:6e:9c:ea:2d:52:a6:5b:9a:f4:46:f7:da:
                    58:81:e8:cd:d2:65:b2:9c:94:e1:2e:3c:80:e1:91:
                    7a:a2:27:84:1b:b6:6e:1e:a1:b7:bf:21:b8:d8:f1:
                    d1:17:15:04:76:ee:bb:a9:07:93:e2:1b:2a:fc:bd:
                    a9:a3:d4:02:bc:e7:99:3a:2b:61:dd:09:e6:41:da:
                    9a:18:25:62:7f:8e:9e:fa:03:49:57:66:98:3b:db:
                    b4:1e:6e:d1:be:22:91:3f:58:52:3b:18:bc:42:99:
                    8d:60:cb:81:5e:ca:69:d1:59:00:23:85:4a:5a:bd:
                    93:e7:3e:74:e5:1e:02:8a:2c:8d:ae:9a:47:43:d3:
                    c3:b6:4c:47:13:30:25:f5:84:73:bc:ee:de:a6:ae:
                    9d:45:c6:f8:6a:44:98:3a:61:9e:e5:60:f9:14:af:
                    2c:14:b4:16:af:be:16:02:75:3d:60:63:a8:b5:c7:
                    5b:25:5b:fa:76:fa:0f:2f:44:02:9f:00:44:02:6e:
                    07:14:86:f4:da:e9:17:50:48:4f:4e:bd:48:40:54:
                    46:3f
                Exponent: 65537 (0x10001)
        X509v3 extensions:
            X509v3 Basic Constraints: 
                CA:FALSE
            X509v3 Extended Key Usage: 
                TLS Web Client Authentication
            Netscape Comment: 
                OpenSSL Generated Certificate
            X509v3 Subject Key Identifier: 
                14:50:83:BC:CB:F3:18:04:6D:FD:33:26:FD:3F:45:9C:3E:19:81:2D
            X509v3 Authority Key Identifier: 
                keyid:F6:38:C7:14:AA:BF:F2:45:E1:89:AC:17:DF:38:20:72:90:AA:64:B2

            X509v3 CRL Distribution Points: 

                Full Name:
                  URI:http://192.168.21.89/rootcrl.pem

    Signature Algorithm: sha1WithRSAEncryption
         7e:ed:c0:8b:3a:90:4c:87:3f:7f:fc:c8:fb:8b:28:7c:de:e5:
         57:3c:0a:83:97:fd:17:21:c0:08:0d:42:6d:92:99:4c:4e:29:
         72:05:06:5d:f2:de:89:e6:87:6b:72:f9:e8:3b:70:3a:75:ba:
         14:1c:bd:7c:16:d3:95:b7:19:ed:8f:84:cc:d8:e4:7b:39:97:
         d4:f8:a0:3a:2d:94:c7:f9:1b:27:71:75:b8:45:2f:72:71:47:
         7c:b9:ea:09:0b:45:27:98:93:4d:91:91:ec:5e:da:01:7c:73:
         69:13:54:5f:c2:96:7f:43:a0:f1:33:88:66:de:46:99:68:41:
         03:48:11:da:7a:dc:ab:4f:bb:59:49:db:5c:38:82:cf:39:8e:
         4f:dc:03:68:bb:16:b9:d1:44:a0:19:53:4e:b5:ca:4d:ec:84:
         4a:1b:a9:36:aa:41:7b:e8:4f:0a:c5:14:5b:cb:39:8a:26:f2:
         ef:1e:cb:c1:b6:0a:61:b5:a0:b9:81:ae:9b:d3:9c:e0:b4:96:
         f8:9a:2d:a0:25:68:f3:b4:77:c6:c2:7f:1c:67:46:03:a3:62:
         e7:6a:7e:22:1b:e1:e4:3b:cf:26:74:87:9e:33:7b:6e:aa:f9:
         24:ef:5b:c5:bb:a5:14:9b:67:cf:de:84:7e:9f:3e:21:22:45:
         7a:82:09:85
-----BEGIN CERTIFICATE-----
MIIEVjCCAz6gAwIBAgIBEjANBgkqhkiG9w0BAQUFADCBhjELMAkGA1UEBhMCQkEx
CzAJBgNVBAgTAlJTMSEwHwYDVQQKExhFbGVrdHJvdGVobmlja2kgZmFrdWx0ZXQx
ETAPBgNVBAsUCENBX0VURkJMMREwDwYDVQQDFAhDQV9FVEZCTDEhMB8GCSqGSIb3
DQEJARYSaW5mb0BldGYudW5pYmwub3JnMB4XDTE5MDgyOTIxMzMzM1oXDTIwMDgy
ODIxMzMzM1owgY4xCzAJBgNVBAYTAkJBMQswCQYDVQQIEwJSUzEhMB8GA1UEChMY
RWxla3Ryb3RlaG5pY2tpIGZha3VsdGV0MREwDwYDVQQLFAhDQV9FVEZCTDEVMBMG
A1UEAxMMTWlya28gTWlya2ljMSUwIwYJKoZIhvcNAQkBFhZtaXJrby5taXJraWNA
Z21haWwuY29tMIIBIjANBgkqhkiG9w0BAQEFAAOCAQ8AMIIBCgKCAQEAxB2A6C1c
4encKEyMDXnKJuNtjH9j/n8IwtQILgixkJIpvsBtcjBvR0zqCLem/NRunOotUqZb
mvRG99pYgejN0mWynJThLjyA4ZF6oieEG7ZuHqG3vyG42PHRFxUEdu67qQeT4hsq
/L2po9QCvOeZOith3QnmQdqaGCVif46e+gNJV2aYO9u0Hm7RviKRP1hSOxi8QpmN
YMuBXspp0VkAI4VKWr2T5z505R4CiiyNrppHQ9PDtkxHEzAl9YRzvO7epq6dRcb4
akSYOmGe5WD5FK8sFLQWr74WAnU9YGOotcdbJVv6dvoPL0QCnwBEAm4HFIb02ukX
UEhPTr1IQFRGPwIDAQABo4HEMIHBMAkGA1UdEwQCMAAwEwYDVR0lBAwwCgYIKwYB
BQUHAwIwLAYJYIZIAYb4QgENBB8WHU9wZW5TU0wgR2VuZXJhdGVkIENlcnRpZmlj
YXRlMB0GA1UdDgQWBBQUUIO8y/MYBG39Myb9P0WcPhmBLTAfBgNVHSMEGDAWgBT2
OMcUqr/yReGJrBffOCBykKpksjAxBgNVHR8EKjAoMCagJKAihiBodHRwOi8vMTky
LjE2OC4yMS44OS9yb290Y3JsLnBlbTANBgkqhkiG9w0BAQUFAAOCAQEAfu3AizqQ
TIc/f/zI+4sofN7lVzwKg5f9FyHACA1CbZKZTE4pcgUGXfLeieaHa3L56DtwOnW6
FBy9fBbTlbcZ7Y+EzNjkezmX1PigOi2Ux/kbJ3F1uEUvcnFHfLnqCQtFJ5iTTZGR
7F7aAXxzaRNUX8KWf0Og8TOIZt5GmWhBA0gR2nrcq0+7WUnbXDiCzzmOT9wDaLsW
udFEoBlTTrXKTeyEShupNqpBe+hPCsUUW8s5iiby7x7LwbYKYbWguYGum9Oc4LSW
+JotoCVo87R3xsJ/HGdGA6Ni52p+Ihvh5DvPJnSHnjN7bqr5JO9bxbulFJtnz96E
fp8+ISJFeoIJhQ==
-----END CERTIFICATE-----
