Certificate:
    Data:
        Version: 3 (0x2)
        Serial Number: 19 (0x13)
    Signature Algorithm: sha1WithRSAEncryption
        Issuer: C=BA, ST=RS, O=Elektrotehnicki fakultet, OU=CA_ETFBL, CN=CA_ETFBL/emailAddress=info@etf.unibl.org
        Validity
            Not Before: Nov  5 18:33:39 2019 GMT
            Not After : Nov  4 18:33:39 2020 GMT
        Subject: C=BA, ST=RS, O=Elektrotehnicki fakultet, OU=CA_ETFBL, CN=Pero/emailAddress=pero.peric@gmail.com
        Subject Public Key Info:
            Public Key Algorithm: rsaEncryption
                Public-Key: (2048 bit)
                Modulus:
                    00:ba:36:bd:78:a1:11:48:e4:34:d5:df:9b:89:74:
                    bf:17:e2:8a:8a:3c:dd:4a:8f:22:71:86:12:54:a5:
                    e9:21:32:aa:08:ca:60:0e:85:ba:54:f6:7e:cc:07:
                    54:b8:c7:1e:ba:6e:eb:74:75:1a:71:ec:e7:a7:1c:
                    9d:f2:63:e2:55:a9:f2:73:0d:5c:c1:fc:7c:3a:7d:
                    a0:9c:61:0c:d5:a7:64:c8:ca:f6:c2:09:42:c8:53:
                    90:e2:67:b2:e6:a9:6c:e8:e0:f6:d6:f3:cc:93:c9:
                    7e:90:11:2e:38:5b:e4:83:e7:cc:e4:b4:91:a5:d6:
                    82:50:6e:f7:7e:3a:3d:66:7b:22:ad:3f:1e:47:e2:
                    f8:2c:25:81:f6:3d:dc:ff:00:06:67:ac:6c:16:99:
                    6e:f4:fd:ae:ce:c4:93:32:27:61:2d:20:11:86:1c:
                    bd:6a:31:a6:b3:7d:cb:eb:f6:fe:ba:95:ef:74:79:
                    bb:f9:ae:90:7d:5f:0a:a8:41:fd:77:0e:73:69:fd:
                    2c:8d:4d:b1:93:8e:55:f4:ca:8b:96:a3:f0:98:85:
                    75:01:21:3e:8a:0f:de:54:67:64:46:d6:f2:1b:aa:
                    c9:4c:30:ba:ea:55:15:97:6b:7a:9e:6b:2a:46:f6:
                    ad:69:60:aa:71:6c:e1:2d:f3:1c:16:3f:75:d8:5c:
                    dd:d3
                Exponent: 65537 (0x10001)
        X509v3 extensions:
            X509v3 Basic Constraints: 
                CA:FALSE
            X509v3 Extended Key Usage: 
                TLS Web Client Authentication
            Netscape Comment: 
                OpenSSL Generated Certificate
            X509v3 Subject Key Identifier: 
                0B:94:51:F2:16:92:9A:F3:1A:28:5D:8A:04:97:51:1A:41:F5:AC:E8
            X509v3 Authority Key Identifier: 
                keyid:F6:38:C7:14:AA:BF:F2:45:E1:89:AC:17:DF:38:20:72:90:AA:64:B2

            X509v3 CRL Distribution Points: 

                Full Name:
                  URI:http://192.168.21.89/rootcrl.pem

    Signature Algorithm: sha1WithRSAEncryption
         46:f8:0a:fe:96:53:64:f0:17:e2:67:de:2a:07:bf:ca:09:ef:
         01:da:1d:72:5d:b5:08:f4:50:8d:e4:fd:e6:95:24:7b:db:34:
         ba:c6:b1:bd:a6:0c:c7:04:cb:97:dc:d9:0b:43:33:b3:2c:e0:
         be:92:f4:a3:26:88:57:ce:77:13:6b:cd:74:35:73:c5:ce:95:
         2e:4a:77:1d:b8:6f:01:d9:59:ec:ba:38:ef:2e:42:03:68:46:
         91:fe:fe:e8:04:db:6b:0d:e7:42:e6:42:75:66:fe:c4:f1:cf:
         23:36:66:7e:bb:ab:e1:b3:78:d9:ad:4d:27:92:40:c1:73:aa:
         27:70:68:61:a0:e6:43:b4:f7:d6:0c:2a:64:b7:ab:6b:40:b0:
         bc:62:4f:86:da:c0:15:c7:67:1d:ff:1f:b3:e7:a1:34:7c:1b:
         56:cf:55:a0:69:82:74:dd:ce:52:89:b8:44:8e:95:4e:5c:ac:
         32:fa:3b:37:f9:9a:37:0c:8d:21:1c:6c:f9:1c:1e:54:13:8b:
         52:53:3d:1c:3f:f8:c4:6e:5e:36:ea:60:2b:9a:fc:b2:b9:f0:
         11:9e:63:82:61:ef:a6:08:b2:79:d7:15:d3:4b:9d:91:06:a0:
         18:32:40:35:95:b9:6c:af:43:8e:5f:85:f1:2b:00:eb:ae:17:
         d5:98:8f:0b
-----BEGIN CERTIFICATE-----
MIIETDCCAzSgAwIBAgIBEzANBgkqhkiG9w0BAQUFADCBhjELMAkGA1UEBhMCQkEx
CzAJBgNVBAgTAlJTMSEwHwYDVQQKExhFbGVrdHJvdGVobmlja2kgZmFrdWx0ZXQx
ETAPBgNVBAsUCENBX0VURkJMMREwDwYDVQQDFAhDQV9FVEZCTDEhMB8GCSqGSIb3
DQEJARYSaW5mb0BldGYudW5pYmwub3JnMB4XDTE5MTEwNTE4MzMzOVoXDTIwMTEw
NDE4MzMzOVowgYQxCzAJBgNVBAYTAkJBMQswCQYDVQQIEwJSUzEhMB8GA1UEChMY
RWxla3Ryb3RlaG5pY2tpIGZha3VsdGV0MREwDwYDVQQLFAhDQV9FVEZCTDENMAsG
A1UEAxMEUGVybzEjMCEGCSqGSIb3DQEJARYUcGVyby5wZXJpY0BnbWFpbC5jb20w
ggEiMA0GCSqGSIb3DQEBAQUAA4IBDwAwggEKAoIBAQC6Nr14oRFI5DTV35uJdL8X
4oqKPN1KjyJxhhJUpekhMqoIymAOhbpU9n7MB1S4xx66but0dRpx7OenHJ3yY+JV
qfJzDVzB/Hw6faCcYQzVp2TIyvbCCULIU5DiZ7LmqWzo4PbW88yTyX6QES44W+SD
58zktJGl1oJQbvd+Oj1meyKtPx5H4vgsJYH2Pdz/AAZnrGwWmW70/a7OxJMyJ2Et
IBGGHL1qMaazfcvr9v66le90ebv5rpB9XwqoQf13DnNp/SyNTbGTjlX0youWo/CY
hXUBIT6KD95UZ2RG1vIbqslMMLrqVRWXa3qeaypG9q1pYKpxbOEt8xwWP3XYXN3T
AgMBAAGjgcQwgcEwCQYDVR0TBAIwADATBgNVHSUEDDAKBggrBgEFBQcDAjAsBglg
hkgBhvhCAQ0EHxYdT3BlblNTTCBHZW5lcmF0ZWQgQ2VydGlmaWNhdGUwHQYDVR0O
BBYEFAuUUfIWkprzGihdigSXURpB9azoMB8GA1UdIwQYMBaAFPY4xxSqv/JF4Yms
F984IHKQqmSyMDEGA1UdHwQqMCgwJqAkoCKGIGh0dHA6Ly8xOTIuMTY4LjIxLjg5
L3Jvb3RjcmwucGVtMA0GCSqGSIb3DQEBBQUAA4IBAQBG+Ar+llNk8BfiZ94qB7/K
Ce8B2h1yXbUI9FCN5P3mlSR72zS6xrG9pgzHBMuX3NkLQzOzLOC+kvSjJohXzncT
a810NXPFzpUuSncduG8B2VnsujjvLkIDaEaR/v7oBNtrDedC5kJ1Zv7E8c8jNmZ+
u6vhs3jZrU0nkkDBc6oncGhhoOZDtPfWDCpkt6trQLC8Yk+G2sAVx2cd/x+z56E0
fBtWz1WgaYJ03c5SibhEjpVOXKwy+js3+Zo3DI0hHGz5HB5UE4tSUz0cP/jEbl42
6mArmvyyufARnmOCYe+mCLJ51xXTS52RBqAYMkA1lblsr0OOX4XxKwDrrhfVmI8L
-----END CERTIFICATE-----
